
ctarget:     file format elf64-x86-64


Disassembly of section .init:

0000000000400c60 <_init>:
  400c60:	48 83 ec 08          	sub    $0x8,%rsp
  400c64:	48 8b 05 8d 33 20 00 	mov    0x20338d(%rip),%rax        # 603ff8 <_DYNAMIC+0x1d0>
  400c6b:	48 85 c0             	test   %rax,%rax
  400c6e:	74 05                	je     400c75 <_init+0x15>
  400c70:	e8 2b 01 00 00       	callq  400da0 <__gmon_start__@plt>
  400c75:	48 83 c4 08          	add    $0x8,%rsp
  400c79:	c3                   	retq   

Disassembly of section .plt:

0000000000400c80 <strcasecmp@plt-0x10>:
  400c80:	ff 35 82 33 20 00    	pushq  0x203382(%rip)        # 604008 <_GLOBAL_OFFSET_TABLE_+0x8>
  400c86:	ff 25 84 33 20 00    	jmpq   *0x203384(%rip)        # 604010 <_GLOBAL_OFFSET_TABLE_+0x10>
  400c8c:	0f 1f 40 00          	nopl   0x0(%rax)

0000000000400c90 <strcasecmp@plt>:
  400c90:	ff 25 82 33 20 00    	jmpq   *0x203382(%rip)        # 604018 <_GLOBAL_OFFSET_TABLE_+0x18>
  400c96:	68 00 00 00 00       	pushq  $0x0
  400c9b:	e9 e0 ff ff ff       	jmpq   400c80 <_init+0x20>

0000000000400ca0 <__errno_location@plt>:
  400ca0:	ff 25 7a 33 20 00    	jmpq   *0x20337a(%rip)        # 604020 <_GLOBAL_OFFSET_TABLE_+0x20>
  400ca6:	68 01 00 00 00       	pushq  $0x1
  400cab:	e9 d0 ff ff ff       	jmpq   400c80 <_init+0x20>

0000000000400cb0 <srandom@plt>:
  400cb0:	ff 25 72 33 20 00    	jmpq   *0x203372(%rip)        # 604028 <_GLOBAL_OFFSET_TABLE_+0x28>
  400cb6:	68 02 00 00 00       	pushq  $0x2
  400cbb:	e9 c0 ff ff ff       	jmpq   400c80 <_init+0x20>

0000000000400cc0 <strncmp@plt>:
  400cc0:	ff 25 6a 33 20 00    	jmpq   *0x20336a(%rip)        # 604030 <_GLOBAL_OFFSET_TABLE_+0x30>
  400cc6:	68 03 00 00 00       	pushq  $0x3
  400ccb:	e9 b0 ff ff ff       	jmpq   400c80 <_init+0x20>

0000000000400cd0 <strcpy@plt>:
  400cd0:	ff 25 62 33 20 00    	jmpq   *0x203362(%rip)        # 604038 <_GLOBAL_OFFSET_TABLE_+0x38>
  400cd6:	68 04 00 00 00       	pushq  $0x4
  400cdb:	e9 a0 ff ff ff       	jmpq   400c80 <_init+0x20>

0000000000400ce0 <puts@plt>:
  400ce0:	ff 25 5a 33 20 00    	jmpq   *0x20335a(%rip)        # 604040 <_GLOBAL_OFFSET_TABLE_+0x40>
  400ce6:	68 05 00 00 00       	pushq  $0x5
  400ceb:	e9 90 ff ff ff       	jmpq   400c80 <_init+0x20>

0000000000400cf0 <write@plt>:
  400cf0:	ff 25 52 33 20 00    	jmpq   *0x203352(%rip)        # 604048 <_GLOBAL_OFFSET_TABLE_+0x48>
  400cf6:	68 06 00 00 00       	pushq  $0x6
  400cfb:	e9 80 ff ff ff       	jmpq   400c80 <_init+0x20>

0000000000400d00 <__stack_chk_fail@plt>:
  400d00:	ff 25 4a 33 20 00    	jmpq   *0x20334a(%rip)        # 604050 <_GLOBAL_OFFSET_TABLE_+0x50>
  400d06:	68 07 00 00 00       	pushq  $0x7
  400d0b:	e9 70 ff ff ff       	jmpq   400c80 <_init+0x20>

0000000000400d10 <mmap@plt>:
  400d10:	ff 25 42 33 20 00    	jmpq   *0x203342(%rip)        # 604058 <_GLOBAL_OFFSET_TABLE_+0x58>
  400d16:	68 08 00 00 00       	pushq  $0x8
  400d1b:	e9 60 ff ff ff       	jmpq   400c80 <_init+0x20>

0000000000400d20 <memset@plt>:
  400d20:	ff 25 3a 33 20 00    	jmpq   *0x20333a(%rip)        # 604060 <_GLOBAL_OFFSET_TABLE_+0x60>
  400d26:	68 09 00 00 00       	pushq  $0x9
  400d2b:	e9 50 ff ff ff       	jmpq   400c80 <_init+0x20>

0000000000400d30 <alarm@plt>:
  400d30:	ff 25 32 33 20 00    	jmpq   *0x203332(%rip)        # 604068 <_GLOBAL_OFFSET_TABLE_+0x68>
  400d36:	68 0a 00 00 00       	pushq  $0xa
  400d3b:	e9 40 ff ff ff       	jmpq   400c80 <_init+0x20>

0000000000400d40 <close@plt>:
  400d40:	ff 25 2a 33 20 00    	jmpq   *0x20332a(%rip)        # 604070 <_GLOBAL_OFFSET_TABLE_+0x70>
  400d46:	68 0b 00 00 00       	pushq  $0xb
  400d4b:	e9 30 ff ff ff       	jmpq   400c80 <_init+0x20>

0000000000400d50 <read@plt>:
  400d50:	ff 25 22 33 20 00    	jmpq   *0x203322(%rip)        # 604078 <_GLOBAL_OFFSET_TABLE_+0x78>
  400d56:	68 0c 00 00 00       	pushq  $0xc
  400d5b:	e9 20 ff ff ff       	jmpq   400c80 <_init+0x20>

0000000000400d60 <__libc_start_main@plt>:
  400d60:	ff 25 1a 33 20 00    	jmpq   *0x20331a(%rip)        # 604080 <_GLOBAL_OFFSET_TABLE_+0x80>
  400d66:	68 0d 00 00 00       	pushq  $0xd
  400d6b:	e9 10 ff ff ff       	jmpq   400c80 <_init+0x20>

0000000000400d70 <signal@plt>:
  400d70:	ff 25 12 33 20 00    	jmpq   *0x203312(%rip)        # 604088 <_GLOBAL_OFFSET_TABLE_+0x88>
  400d76:	68 0e 00 00 00       	pushq  $0xe
  400d7b:	e9 00 ff ff ff       	jmpq   400c80 <_init+0x20>

0000000000400d80 <gethostbyname@plt>:
  400d80:	ff 25 0a 33 20 00    	jmpq   *0x20330a(%rip)        # 604090 <_GLOBAL_OFFSET_TABLE_+0x90>
  400d86:	68 0f 00 00 00       	pushq  $0xf
  400d8b:	e9 f0 fe ff ff       	jmpq   400c80 <_init+0x20>

0000000000400d90 <__memmove_chk@plt>:
  400d90:	ff 25 02 33 20 00    	jmpq   *0x203302(%rip)        # 604098 <_GLOBAL_OFFSET_TABLE_+0x98>
  400d96:	68 10 00 00 00       	pushq  $0x10
  400d9b:	e9 e0 fe ff ff       	jmpq   400c80 <_init+0x20>

0000000000400da0 <__gmon_start__@plt>:
  400da0:	ff 25 fa 32 20 00    	jmpq   *0x2032fa(%rip)        # 6040a0 <_GLOBAL_OFFSET_TABLE_+0xa0>
  400da6:	68 11 00 00 00       	pushq  $0x11
  400dab:	e9 d0 fe ff ff       	jmpq   400c80 <_init+0x20>

0000000000400db0 <strtol@plt>:
  400db0:	ff 25 f2 32 20 00    	jmpq   *0x2032f2(%rip)        # 6040a8 <_GLOBAL_OFFSET_TABLE_+0xa8>
  400db6:	68 12 00 00 00       	pushq  $0x12
  400dbb:	e9 c0 fe ff ff       	jmpq   400c80 <_init+0x20>

0000000000400dc0 <memcpy@plt>:
  400dc0:	ff 25 ea 32 20 00    	jmpq   *0x2032ea(%rip)        # 6040b0 <_GLOBAL_OFFSET_TABLE_+0xb0>
  400dc6:	68 13 00 00 00       	pushq  $0x13
  400dcb:	e9 b0 fe ff ff       	jmpq   400c80 <_init+0x20>

0000000000400dd0 <time@plt>:
  400dd0:	ff 25 e2 32 20 00    	jmpq   *0x2032e2(%rip)        # 6040b8 <_GLOBAL_OFFSET_TABLE_+0xb8>
  400dd6:	68 14 00 00 00       	pushq  $0x14
  400ddb:	e9 a0 fe ff ff       	jmpq   400c80 <_init+0x20>

0000000000400de0 <random@plt>:
  400de0:	ff 25 da 32 20 00    	jmpq   *0x2032da(%rip)        # 6040c0 <_GLOBAL_OFFSET_TABLE_+0xc0>
  400de6:	68 15 00 00 00       	pushq  $0x15
  400deb:	e9 90 fe ff ff       	jmpq   400c80 <_init+0x20>

0000000000400df0 <_IO_getc@plt>:
  400df0:	ff 25 d2 32 20 00    	jmpq   *0x2032d2(%rip)        # 6040c8 <_GLOBAL_OFFSET_TABLE_+0xc8>
  400df6:	68 16 00 00 00       	pushq  $0x16
  400dfb:	e9 80 fe ff ff       	jmpq   400c80 <_init+0x20>

0000000000400e00 <__isoc99_sscanf@plt>:
  400e00:	ff 25 ca 32 20 00    	jmpq   *0x2032ca(%rip)        # 6040d0 <_GLOBAL_OFFSET_TABLE_+0xd0>
  400e06:	68 17 00 00 00       	pushq  $0x17
  400e0b:	e9 70 fe ff ff       	jmpq   400c80 <_init+0x20>

0000000000400e10 <munmap@plt>:
  400e10:	ff 25 c2 32 20 00    	jmpq   *0x2032c2(%rip)        # 6040d8 <_GLOBAL_OFFSET_TABLE_+0xd8>
  400e16:	68 18 00 00 00       	pushq  $0x18
  400e1b:	e9 60 fe ff ff       	jmpq   400c80 <_init+0x20>

0000000000400e20 <__printf_chk@plt>:
  400e20:	ff 25 ba 32 20 00    	jmpq   *0x2032ba(%rip)        # 6040e0 <_GLOBAL_OFFSET_TABLE_+0xe0>
  400e26:	68 19 00 00 00       	pushq  $0x19
  400e2b:	e9 50 fe ff ff       	jmpq   400c80 <_init+0x20>

0000000000400e30 <fopen@plt>:
  400e30:	ff 25 b2 32 20 00    	jmpq   *0x2032b2(%rip)        # 6040e8 <_GLOBAL_OFFSET_TABLE_+0xe8>
  400e36:	68 1a 00 00 00       	pushq  $0x1a
  400e3b:	e9 40 fe ff ff       	jmpq   400c80 <_init+0x20>

0000000000400e40 <getopt@plt>:
  400e40:	ff 25 aa 32 20 00    	jmpq   *0x2032aa(%rip)        # 6040f0 <_GLOBAL_OFFSET_TABLE_+0xf0>
  400e46:	68 1b 00 00 00       	pushq  $0x1b
  400e4b:	e9 30 fe ff ff       	jmpq   400c80 <_init+0x20>

0000000000400e50 <strtoul@plt>:
  400e50:	ff 25 a2 32 20 00    	jmpq   *0x2032a2(%rip)        # 6040f8 <_GLOBAL_OFFSET_TABLE_+0xf8>
  400e56:	68 1c 00 00 00       	pushq  $0x1c
  400e5b:	e9 20 fe ff ff       	jmpq   400c80 <_init+0x20>

0000000000400e60 <gethostname@plt>:
  400e60:	ff 25 9a 32 20 00    	jmpq   *0x20329a(%rip)        # 604100 <_GLOBAL_OFFSET_TABLE_+0x100>
  400e66:	68 1d 00 00 00       	pushq  $0x1d
  400e6b:	e9 10 fe ff ff       	jmpq   400c80 <_init+0x20>

0000000000400e70 <exit@plt>:
  400e70:	ff 25 92 32 20 00    	jmpq   *0x203292(%rip)        # 604108 <_GLOBAL_OFFSET_TABLE_+0x108>
  400e76:	68 1e 00 00 00       	pushq  $0x1e
  400e7b:	e9 00 fe ff ff       	jmpq   400c80 <_init+0x20>

0000000000400e80 <connect@plt>:
  400e80:	ff 25 8a 32 20 00    	jmpq   *0x20328a(%rip)        # 604110 <_GLOBAL_OFFSET_TABLE_+0x110>
  400e86:	68 1f 00 00 00       	pushq  $0x1f
  400e8b:	e9 f0 fd ff ff       	jmpq   400c80 <_init+0x20>

0000000000400e90 <__fprintf_chk@plt>:
  400e90:	ff 25 82 32 20 00    	jmpq   *0x203282(%rip)        # 604118 <_GLOBAL_OFFSET_TABLE_+0x118>
  400e96:	68 20 00 00 00       	pushq  $0x20
  400e9b:	e9 e0 fd ff ff       	jmpq   400c80 <_init+0x20>

0000000000400ea0 <__sprintf_chk@plt>:
  400ea0:	ff 25 7a 32 20 00    	jmpq   *0x20327a(%rip)        # 604120 <_GLOBAL_OFFSET_TABLE_+0x120>
  400ea6:	68 21 00 00 00       	pushq  $0x21
  400eab:	e9 d0 fd ff ff       	jmpq   400c80 <_init+0x20>

0000000000400eb0 <socket@plt>:
  400eb0:	ff 25 72 32 20 00    	jmpq   *0x203272(%rip)        # 604128 <_GLOBAL_OFFSET_TABLE_+0x128>
  400eb6:	68 22 00 00 00       	pushq  $0x22
  400ebb:	e9 c0 fd ff ff       	jmpq   400c80 <_init+0x20>

Disassembly of section .text:

0000000000400ec0 <_start>:
  400ec0:	31 ed                	xor    %ebp,%ebp
  400ec2:	49 89 d1             	mov    %rdx,%r9
  400ec5:	5e                   	pop    %rsi
  400ec6:	48 89 e2             	mov    %rsp,%rdx
  400ec9:	48 83 e4 f0          	and    $0xfffffffffffffff0,%rsp
  400ecd:	50                   	push   %rax
  400ece:	54                   	push   %rsp
  400ecf:	49 c7 c0 d0 2e 40 00 	mov    $0x402ed0,%r8
  400ed6:	48 c7 c1 60 2e 40 00 	mov    $0x402e60,%rcx
  400edd:	48 c7 c7 c5 11 40 00 	mov    $0x4011c5,%rdi
  400ee4:	e8 77 fe ff ff       	callq  400d60 <__libc_start_main@plt>
  400ee9:	f4                   	hlt    
  400eea:	66 0f 1f 44 00 00    	nopw   0x0(%rax,%rax,1)

0000000000400ef0 <deregister_tm_clones>:
  400ef0:	b8 b7 44 60 00       	mov    $0x6044b7,%eax
  400ef5:	55                   	push   %rbp
  400ef6:	48 2d b0 44 60 00    	sub    $0x6044b0,%rax
  400efc:	48 83 f8 0e          	cmp    $0xe,%rax
  400f00:	48 89 e5             	mov    %rsp,%rbp
  400f03:	76 1b                	jbe    400f20 <deregister_tm_clones+0x30>
  400f05:	b8 00 00 00 00       	mov    $0x0,%eax
  400f0a:	48 85 c0             	test   %rax,%rax
  400f0d:	74 11                	je     400f20 <deregister_tm_clones+0x30>
  400f0f:	5d                   	pop    %rbp
  400f10:	bf b0 44 60 00       	mov    $0x6044b0,%edi
  400f15:	ff e0                	jmpq   *%rax
  400f17:	66 0f 1f 84 00 00 00 	nopw   0x0(%rax,%rax,1)
  400f1e:	00 00 
  400f20:	5d                   	pop    %rbp
  400f21:	c3                   	retq   
  400f22:	66 66 66 66 66 2e 0f 	data16 data16 data16 data16 nopw %cs:0x0(%rax,%rax,1)
  400f29:	1f 84 00 00 00 00 00 

0000000000400f30 <register_tm_clones>:
  400f30:	be b0 44 60 00       	mov    $0x6044b0,%esi
  400f35:	55                   	push   %rbp
  400f36:	48 81 ee b0 44 60 00 	sub    $0x6044b0,%rsi
  400f3d:	48 c1 fe 03          	sar    $0x3,%rsi
  400f41:	48 89 e5             	mov    %rsp,%rbp
  400f44:	48 89 f0             	mov    %rsi,%rax
  400f47:	48 c1 e8 3f          	shr    $0x3f,%rax
  400f4b:	48 01 c6             	add    %rax,%rsi
  400f4e:	48 d1 fe             	sar    %rsi
  400f51:	74 15                	je     400f68 <register_tm_clones+0x38>
  400f53:	b8 00 00 00 00       	mov    $0x0,%eax
  400f58:	48 85 c0             	test   %rax,%rax
  400f5b:	74 0b                	je     400f68 <register_tm_clones+0x38>
  400f5d:	5d                   	pop    %rbp
  400f5e:	bf b0 44 60 00       	mov    $0x6044b0,%edi
  400f63:	ff e0                	jmpq   *%rax
  400f65:	0f 1f 00             	nopl   (%rax)
  400f68:	5d                   	pop    %rbp
  400f69:	c3                   	retq   
  400f6a:	66 0f 1f 44 00 00    	nopw   0x0(%rax,%rax,1)

0000000000400f70 <__do_global_dtors_aux>:
  400f70:	80 3d 79 35 20 00 00 	cmpb   $0x0,0x203579(%rip)        # 6044f0 <completed.7545>
  400f77:	75 11                	jne    400f8a <__do_global_dtors_aux+0x1a>
  400f79:	55                   	push   %rbp
  400f7a:	48 89 e5             	mov    %rsp,%rbp
  400f7d:	e8 6e ff ff ff       	callq  400ef0 <deregister_tm_clones>
  400f82:	5d                   	pop    %rbp
  400f83:	c6 05 66 35 20 00 01 	movb   $0x1,0x203566(%rip)        # 6044f0 <completed.7545>
  400f8a:	f3 c3                	repz retq 
  400f8c:	0f 1f 40 00          	nopl   0x0(%rax)

0000000000400f90 <frame_dummy>:
  400f90:	bf 20 3e 60 00       	mov    $0x603e20,%edi
  400f95:	48 83 3f 00          	cmpq   $0x0,(%rdi)
  400f99:	75 05                	jne    400fa0 <frame_dummy+0x10>
  400f9b:	eb 93                	jmp    400f30 <register_tm_clones>
  400f9d:	0f 1f 00             	nopl   (%rax)
  400fa0:	b8 00 00 00 00       	mov    $0x0,%eax
  400fa5:	48 85 c0             	test   %rax,%rax
  400fa8:	74 f1                	je     400f9b <frame_dummy+0xb>
  400faa:	55                   	push   %rbp
  400fab:	48 89 e5             	mov    %rsp,%rbp
  400fae:	ff d0                	callq  *%rax
  400fb0:	5d                   	pop    %rbp
  400fb1:	e9 7a ff ff ff       	jmpq   400f30 <register_tm_clones>

0000000000400fb6 <usage>:
  400fb6:	48 83 ec 08          	sub    $0x8,%rsp
  400fba:	48 89 fa             	mov    %rdi,%rdx
  400fbd:	83 3d 64 35 20 00 00 	cmpl   $0x0,0x203564(%rip)        # 604528 <is_checker>
  400fc4:	74 3e                	je     401004 <usage+0x4e>
  400fc6:	be e8 2e 40 00       	mov    $0x402ee8,%esi
  400fcb:	bf 01 00 00 00       	mov    $0x1,%edi
  400fd0:	b8 00 00 00 00       	mov    $0x0,%eax
  400fd5:	e8 46 fe ff ff       	callq  400e20 <__printf_chk@plt>
  400fda:	bf 20 2f 40 00       	mov    $0x402f20,%edi
  400fdf:	e8 fc fc ff ff       	callq  400ce0 <puts@plt>
  400fe4:	bf 98 30 40 00       	mov    $0x403098,%edi
  400fe9:	e8 f2 fc ff ff       	callq  400ce0 <puts@plt>
  400fee:	bf 48 2f 40 00       	mov    $0x402f48,%edi
  400ff3:	e8 e8 fc ff ff       	callq  400ce0 <puts@plt>
  400ff8:	bf b2 30 40 00       	mov    $0x4030b2,%edi
  400ffd:	e8 de fc ff ff       	callq  400ce0 <puts@plt>
  401002:	eb 32                	jmp    401036 <usage+0x80>
  401004:	be ce 30 40 00       	mov    $0x4030ce,%esi
  401009:	bf 01 00 00 00       	mov    $0x1,%edi
  40100e:	b8 00 00 00 00       	mov    $0x0,%eax
  401013:	e8 08 fe ff ff       	callq  400e20 <__printf_chk@plt>
  401018:	bf 70 2f 40 00       	mov    $0x402f70,%edi
  40101d:	e8 be fc ff ff       	callq  400ce0 <puts@plt>
  401022:	bf 98 2f 40 00       	mov    $0x402f98,%edi
  401027:	e8 b4 fc ff ff       	callq  400ce0 <puts@plt>
  40102c:	bf ec 30 40 00       	mov    $0x4030ec,%edi
  401031:	e8 aa fc ff ff       	callq  400ce0 <puts@plt>
  401036:	bf 00 00 00 00       	mov    $0x0,%edi
  40103b:	e8 30 fe ff ff       	callq  400e70 <exit@plt>

0000000000401040 <initialize_target>:
  401040:	55                   	push   %rbp
  401041:	53                   	push   %rbx
  401042:	48 81 ec 18 21 00 00 	sub    $0x2118,%rsp
  401049:	89 f5                	mov    %esi,%ebp
  40104b:	64 48 8b 04 25 28 00 	mov    %fs:0x28,%rax
  401052:	00 00 
  401054:	48 89 84 24 08 21 00 	mov    %rax,0x2108(%rsp)
  40105b:	00 
  40105c:	31 c0                	xor    %eax,%eax
  40105e:	89 3d b4 34 20 00    	mov    %edi,0x2034b4(%rip)        # 604518 <check_level>
  401064:	8b 3d fe 30 20 00    	mov    0x2030fe(%rip),%edi        # 604168 <target_id>
  40106a:	e8 cb 1d 00 00       	callq  402e3a <gencookie>
  40106f:	89 05 af 34 20 00    	mov    %eax,0x2034af(%rip)        # 604524 <cookie>
  401075:	89 c7                	mov    %eax,%edi
  401077:	e8 be 1d 00 00       	callq  402e3a <gencookie>
  40107c:	89 05 9e 34 20 00    	mov    %eax,0x20349e(%rip)        # 604520 <authkey>
  401082:	8b 05 e0 30 20 00    	mov    0x2030e0(%rip),%eax        # 604168 <target_id>
  401088:	8d 78 01             	lea    0x1(%rax),%edi
  40108b:	e8 20 fc ff ff       	callq  400cb0 <srandom@plt>
  401090:	e8 4b fd ff ff       	callq  400de0 <random@plt>
  401095:	89 c7                	mov    %eax,%edi
  401097:	e8 03 03 00 00       	callq  40139f <scramble>
  40109c:	89 c3                	mov    %eax,%ebx
  40109e:	85 ed                	test   %ebp,%ebp
  4010a0:	74 18                	je     4010ba <initialize_target+0x7a>
  4010a2:	bf 00 00 00 00       	mov    $0x0,%edi
  4010a7:	e8 24 fd ff ff       	callq  400dd0 <time@plt>
  4010ac:	89 c7                	mov    %eax,%edi
  4010ae:	e8 fd fb ff ff       	callq  400cb0 <srandom@plt>
  4010b3:	e8 28 fd ff ff       	callq  400de0 <random@plt>
  4010b8:	eb 05                	jmp    4010bf <initialize_target+0x7f>
  4010ba:	b8 00 00 00 00       	mov    $0x0,%eax
  4010bf:	01 c3                	add    %eax,%ebx
  4010c1:	0f b7 db             	movzwl %bx,%ebx
  4010c4:	8d 04 dd 00 01 00 00 	lea    0x100(,%rbx,8),%eax
  4010cb:	89 c0                	mov    %eax,%eax
  4010cd:	48 89 05 cc 33 20 00 	mov    %rax,0x2033cc(%rip)        # 6044a0 <buf_offset>
  4010d4:	c6 05 6d 40 20 00 63 	movb   $0x63,0x20406d(%rip)        # 605148 <target_prefix>
  4010db:	83 3d c6 33 20 00 00 	cmpl   $0x0,0x2033c6(%rip)        # 6044a8 <notify>
  4010e2:	0f 84 bb 00 00 00    	je     4011a3 <initialize_target+0x163>
  4010e8:	83 3d 39 34 20 00 00 	cmpl   $0x0,0x203439(%rip)        # 604528 <is_checker>
  4010ef:	0f 85 ae 00 00 00    	jne    4011a3 <initialize_target+0x163>
  4010f5:	be 00 01 00 00       	mov    $0x100,%esi
  4010fa:	48 89 e7             	mov    %rsp,%rdi
  4010fd:	e8 5e fd ff ff       	callq  400e60 <gethostname@plt>
  401102:	85 c0                	test   %eax,%eax
  401104:	74 25                	je     40112b <initialize_target+0xeb>
  401106:	bf c8 2f 40 00       	mov    $0x402fc8,%edi
  40110b:	e8 d0 fb ff ff       	callq  400ce0 <puts@plt>
  401110:	bf 08 00 00 00       	mov    $0x8,%edi
  401115:	e8 56 fd ff ff       	callq  400e70 <exit@plt>
  40111a:	48 89 e6             	mov    %rsp,%rsi
  40111d:	e8 6e fb ff ff       	callq  400c90 <strcasecmp@plt>
  401122:	85 c0                	test   %eax,%eax
  401124:	74 21                	je     401147 <initialize_target+0x107>
  401126:	83 c3 01             	add    $0x1,%ebx
  401129:	eb 05                	jmp    401130 <initialize_target+0xf0>
  40112b:	bb 00 00 00 00       	mov    $0x0,%ebx
  401130:	48 63 c3             	movslq %ebx,%rax
  401133:	48 8b 3c c5 80 41 60 	mov    0x604180(,%rax,8),%rdi
  40113a:	00 
  40113b:	48 85 ff             	test   %rdi,%rdi
  40113e:	75 da                	jne    40111a <initialize_target+0xda>
  401140:	b8 00 00 00 00       	mov    $0x0,%eax
  401145:	eb 05                	jmp    40114c <initialize_target+0x10c>
  401147:	b8 01 00 00 00       	mov    $0x1,%eax
  40114c:	85 c0                	test   %eax,%eax
  40114e:	75 1c                	jne    40116c <initialize_target+0x12c>
  401150:	48 89 e2             	mov    %rsp,%rdx
  401153:	be 00 30 40 00       	mov    $0x403000,%esi
  401158:	bf 01 00 00 00       	mov    $0x1,%edi
  40115d:	e8 be fc ff ff       	callq  400e20 <__printf_chk@plt>
  401162:	bf 08 00 00 00       	mov    $0x8,%edi
  401167:	e8 04 fd ff ff       	callq  400e70 <exit@plt>
  40116c:	48 8d bc 24 00 01 00 	lea    0x100(%rsp),%rdi
  401173:	00 
  401174:	e8 2b 1a 00 00       	callq  402ba4 <init_driver>
  401179:	85 c0                	test   %eax,%eax
  40117b:	79 26                	jns    4011a3 <initialize_target+0x163>
  40117d:	48 8d 94 24 00 01 00 	lea    0x100(%rsp),%rdx
  401184:	00 
  401185:	be 40 30 40 00       	mov    $0x403040,%esi
  40118a:	bf 01 00 00 00       	mov    $0x1,%edi
  40118f:	b8 00 00 00 00       	mov    $0x0,%eax
  401194:	e8 87 fc ff ff       	callq  400e20 <__printf_chk@plt>
  401199:	bf 08 00 00 00       	mov    $0x8,%edi
  40119e:	e8 cd fc ff ff       	callq  400e70 <exit@plt>
  4011a3:	48 8b 84 24 08 21 00 	mov    0x2108(%rsp),%rax
  4011aa:	00 
  4011ab:	64 48 33 04 25 28 00 	xor    %fs:0x28,%rax
  4011b2:	00 00 
  4011b4:	74 05                	je     4011bb <initialize_target+0x17b>
  4011b6:	e8 45 fb ff ff       	callq  400d00 <__stack_chk_fail@plt>
  4011bb:	48 81 c4 18 21 00 00 	add    $0x2118,%rsp
  4011c2:	5b                   	pop    %rbx
  4011c3:	5d                   	pop    %rbp
  4011c4:	c3                   	retq   

00000000004011c5 <main>:
  4011c5:	41 56                	push   %r14
  4011c7:	41 55                	push   %r13
  4011c9:	41 54                	push   %r12
  4011cb:	55                   	push   %rbp
  4011cc:	53                   	push   %rbx
  4011cd:	41 89 fc             	mov    %edi,%r12d
  4011d0:	48 89 f3             	mov    %rsi,%rbx
  4011d3:	be 13 1f 40 00       	mov    $0x401f13,%esi
  4011d8:	bf 0b 00 00 00       	mov    $0xb,%edi
  4011dd:	e8 8e fb ff ff       	callq  400d70 <signal@plt>
  4011e2:	be c5 1e 40 00       	mov    $0x401ec5,%esi
  4011e7:	bf 07 00 00 00       	mov    $0x7,%edi
  4011ec:	e8 7f fb ff ff       	callq  400d70 <signal@plt>
  4011f1:	be 61 1f 40 00       	mov    $0x401f61,%esi
  4011f6:	bf 04 00 00 00       	mov    $0x4,%edi
  4011fb:	e8 70 fb ff ff       	callq  400d70 <signal@plt>
  401200:	83 3d 21 33 20 00 00 	cmpl   $0x0,0x203321(%rip)        # 604528 <is_checker>
  401207:	74 20                	je     401229 <main+0x64>
  401209:	be af 1f 40 00       	mov    $0x401faf,%esi
  40120e:	bf 0e 00 00 00       	mov    $0xe,%edi
  401213:	e8 58 fb ff ff       	callq  400d70 <signal@plt>
  401218:	bf 05 00 00 00       	mov    $0x5,%edi
  40121d:	e8 0e fb ff ff       	callq  400d30 <alarm@plt>
  401222:	bd 0a 31 40 00       	mov    $0x40310a,%ebp
  401227:	eb 05                	jmp    40122e <main+0x69>
  401229:	bd 05 31 40 00       	mov    $0x403105,%ebp
  40122e:	48 8b 05 8b 32 20 00 	mov    0x20328b(%rip),%rax        # 6044c0 <stdin@@GLIBC_2.2.5>
  401235:	48 89 05 d4 32 20 00 	mov    %rax,0x2032d4(%rip)        # 604510 <infile>
  40123c:	41 bd 00 00 00 00    	mov    $0x0,%r13d
  401242:	41 be 00 00 00 00    	mov    $0x0,%r14d
  401248:	e9 c6 00 00 00       	jmpq   401313 <main+0x14e>
  40124d:	83 e8 61             	sub    $0x61,%eax
  401250:	3c 10                	cmp    $0x10,%al
  401252:	0f 87 9c 00 00 00    	ja     4012f4 <main+0x12f>
  401258:	0f b6 c0             	movzbl %al,%eax
  40125b:	ff 24 c5 50 31 40 00 	jmpq   *0x403150(,%rax,8)
  401262:	48 8b 3b             	mov    (%rbx),%rdi
  401265:	e8 4c fd ff ff       	callq  400fb6 <usage>
  40126a:	be bd 33 40 00       	mov    $0x4033bd,%esi
  40126f:	48 8b 3d 6a 32 20 00 	mov    0x20326a(%rip),%rdi        # 6044e0 <optarg@@GLIBC_2.2.5>
  401276:	e8 b5 fb ff ff       	callq  400e30 <fopen@plt>
  40127b:	48 89 05 8e 32 20 00 	mov    %rax,0x20328e(%rip)        # 604510 <infile>
  401282:	48 85 c0             	test   %rax,%rax
  401285:	0f 85 88 00 00 00    	jne    401313 <main+0x14e>
  40128b:	48 8b 0d 4e 32 20 00 	mov    0x20324e(%rip),%rcx        # 6044e0 <optarg@@GLIBC_2.2.5>
  401292:	ba 12 31 40 00       	mov    $0x403112,%edx
  401297:	be 01 00 00 00       	mov    $0x1,%esi
  40129c:	48 8b 3d 45 32 20 00 	mov    0x203245(%rip),%rdi        # 6044e8 <stderr@@GLIBC_2.2.5>
  4012a3:	e8 e8 fb ff ff       	callq  400e90 <__fprintf_chk@plt>
  4012a8:	b8 01 00 00 00       	mov    $0x1,%eax
  4012ad:	e9 e4 00 00 00       	jmpq   401396 <main+0x1d1>
  4012b2:	ba 10 00 00 00       	mov    $0x10,%edx
  4012b7:	be 00 00 00 00       	mov    $0x0,%esi
  4012bc:	48 8b 3d 1d 32 20 00 	mov    0x20321d(%rip),%rdi        # 6044e0 <optarg@@GLIBC_2.2.5>
  4012c3:	e8 88 fb ff ff       	callq  400e50 <strtoul@plt>
  4012c8:	41 89 c6             	mov    %eax,%r14d
  4012cb:	eb 46                	jmp    401313 <main+0x14e>
  4012cd:	ba 0a 00 00 00       	mov    $0xa,%edx
  4012d2:	be 00 00 00 00       	mov    $0x0,%esi
  4012d7:	48 8b 3d 02 32 20 00 	mov    0x203202(%rip),%rdi        # 6044e0 <optarg@@GLIBC_2.2.5>
  4012de:	e8 cd fa ff ff       	callq  400db0 <strtol@plt>
  4012e3:	41 89 c5             	mov    %eax,%r13d
  4012e6:	eb 2b                	jmp    401313 <main+0x14e>
  4012e8:	c7 05 b6 31 20 00 00 	movl   $0x0,0x2031b6(%rip)        # 6044a8 <notify>
  4012ef:	00 00 00 
  4012f2:	eb 1f                	jmp    401313 <main+0x14e>
  4012f4:	0f be d2             	movsbl %dl,%edx
  4012f7:	be 2f 31 40 00       	mov    $0x40312f,%esi
  4012fc:	bf 01 00 00 00       	mov    $0x1,%edi
  401301:	b8 00 00 00 00       	mov    $0x0,%eax
  401306:	e8 15 fb ff ff       	callq  400e20 <__printf_chk@plt>
  40130b:	48 8b 3b             	mov    (%rbx),%rdi
  40130e:	e8 a3 fc ff ff       	callq  400fb6 <usage>
  401313:	48 89 ea             	mov    %rbp,%rdx
  401316:	48 89 de             	mov    %rbx,%rsi
  401319:	44 89 e7             	mov    %r12d,%edi
  40131c:	e8 1f fb ff ff       	callq  400e40 <getopt@plt>
  401321:	89 c2                	mov    %eax,%edx
  401323:	3c ff                	cmp    $0xff,%al
  401325:	0f 85 22 ff ff ff    	jne    40124d <main+0x88>
  40132b:	be 00 00 00 00       	mov    $0x0,%esi
  401330:	44 89 ef             	mov    %r13d,%edi
  401333:	e8 08 fd ff ff       	callq  401040 <initialize_target>
  401338:	83 3d e9 31 20 00 00 	cmpl   $0x0,0x2031e9(%rip)        # 604528 <is_checker>
  40133f:	74 2a                	je     40136b <main+0x1a6>
  401341:	44 3b 35 d8 31 20 00 	cmp    0x2031d8(%rip),%r14d        # 604520 <authkey>
  401348:	74 21                	je     40136b <main+0x1a6>
  40134a:	44 89 f2             	mov    %r14d,%edx
  40134d:	be 68 30 40 00       	mov    $0x403068,%esi
  401352:	bf 01 00 00 00       	mov    $0x1,%edi
  401357:	b8 00 00 00 00       	mov    $0x0,%eax
  40135c:	e8 bf fa ff ff       	callq  400e20 <__printf_chk@plt>
  401361:	b8 00 00 00 00       	mov    $0x0,%eax
  401366:	e8 f6 07 00 00       	callq  401b61 <check_fail>
  40136b:	8b 15 b3 31 20 00    	mov    0x2031b3(%rip),%edx        # 604524 <cookie>
  401371:	be 42 31 40 00       	mov    $0x403142,%esi
  401376:	bf 01 00 00 00       	mov    $0x1,%edi
  40137b:	b8 00 00 00 00       	mov    $0x0,%eax
  401380:	e8 9b fa ff ff       	callq  400e20 <__printf_chk@plt>
  401385:	48 8b 3d 14 31 20 00 	mov    0x203114(%rip),%rdi        # 6044a0 <buf_offset>
  40138c:	e8 1e 0d 00 00       	callq  4020af <stable_launch>
  401391:	b8 00 00 00 00       	mov    $0x0,%eax
  401396:	5b                   	pop    %rbx
  401397:	5d                   	pop    %rbp
  401398:	41 5c                	pop    %r12
  40139a:	41 5d                	pop    %r13
  40139c:	41 5e                	pop    %r14
  40139e:	c3                   	retq   

000000000040139f <scramble>:
  40139f:	b8 00 00 00 00       	mov    $0x0,%eax
  4013a4:	eb 11                	jmp    4013b7 <scramble+0x18>
  4013a6:	69 d0 a5 0b 00 00    	imul   $0xba5,%eax,%edx
  4013ac:	01 fa                	add    %edi,%edx
  4013ae:	89 c1                	mov    %eax,%ecx
  4013b0:	89 54 8c c8          	mov    %edx,-0x38(%rsp,%rcx,4)
  4013b4:	83 c0 01             	add    $0x1,%eax
  4013b7:	83 f8 09             	cmp    $0x9,%eax
  4013ba:	76 ea                	jbe    4013a6 <scramble+0x7>
  4013bc:	8b 44 24 e4          	mov    -0x1c(%rsp),%eax
  4013c0:	69 c0 3e 92 00 00    	imul   $0x923e,%eax,%eax
  4013c6:	89 44 24 e4          	mov    %eax,-0x1c(%rsp)
  4013ca:	8b 44 24 c8          	mov    -0x38(%rsp),%eax
  4013ce:	69 c0 f2 45 00 00    	imul   $0x45f2,%eax,%eax
  4013d4:	89 44 24 c8          	mov    %eax,-0x38(%rsp)
  4013d8:	8b 44 24 d4          	mov    -0x2c(%rsp),%eax
  4013dc:	69 c0 a6 dc 00 00    	imul   $0xdca6,%eax,%eax
  4013e2:	89 44 24 d4          	mov    %eax,-0x2c(%rsp)
  4013e6:	8b 44 24 e8          	mov    -0x18(%rsp),%eax
  4013ea:	69 c0 0c 89 00 00    	imul   $0x890c,%eax,%eax
  4013f0:	89 44 24 e8          	mov    %eax,-0x18(%rsp)
  4013f4:	8b 44 24 e8          	mov    -0x18(%rsp),%eax
  4013f8:	69 c0 1e df 00 00    	imul   $0xdf1e,%eax,%eax
  4013fe:	89 44 24 e8          	mov    %eax,-0x18(%rsp)
  401402:	8b 44 24 ec          	mov    -0x14(%rsp),%eax
  401406:	69 c0 0c 94 00 00    	imul   $0x940c,%eax,%eax
  40140c:	89 44 24 ec          	mov    %eax,-0x14(%rsp)
  401410:	8b 44 24 e4          	mov    -0x1c(%rsp),%eax
  401414:	69 c0 ca 49 00 00    	imul   $0x49ca,%eax,%eax
  40141a:	89 44 24 e4          	mov    %eax,-0x1c(%rsp)
  40141e:	8b 44 24 cc          	mov    -0x34(%rsp),%eax
  401422:	69 c0 f8 98 00 00    	imul   $0x98f8,%eax,%eax
  401428:	89 44 24 cc          	mov    %eax,-0x34(%rsp)
  40142c:	8b 44 24 ec          	mov    -0x14(%rsp),%eax
  401430:	69 c0 b4 29 00 00    	imul   $0x29b4,%eax,%eax
  401436:	89 44 24 ec          	mov    %eax,-0x14(%rsp)
  40143a:	8b 44 24 d0          	mov    -0x30(%rsp),%eax
  40143e:	69 c0 6b 13 00 00    	imul   $0x136b,%eax,%eax
  401444:	89 44 24 d0          	mov    %eax,-0x30(%rsp)
  401448:	8b 44 24 c8          	mov    -0x38(%rsp),%eax
  40144c:	69 c0 96 3b 00 00    	imul   $0x3b96,%eax,%eax
  401452:	89 44 24 c8          	mov    %eax,-0x38(%rsp)
  401456:	8b 44 24 ec          	mov    -0x14(%rsp),%eax
  40145a:	69 c0 75 fe 00 00    	imul   $0xfe75,%eax,%eax
  401460:	89 44 24 ec          	mov    %eax,-0x14(%rsp)
  401464:	8b 44 24 d4          	mov    -0x2c(%rsp),%eax
  401468:	69 c0 b7 f9 00 00    	imul   $0xf9b7,%eax,%eax
  40146e:	89 44 24 d4          	mov    %eax,-0x2c(%rsp)
  401472:	8b 44 24 cc          	mov    -0x34(%rsp),%eax
  401476:	69 c0 15 9e 00 00    	imul   $0x9e15,%eax,%eax
  40147c:	89 44 24 cc          	mov    %eax,-0x34(%rsp)
  401480:	8b 44 24 dc          	mov    -0x24(%rsp),%eax
  401484:	69 c0 b5 48 00 00    	imul   $0x48b5,%eax,%eax
  40148a:	89 44 24 dc          	mov    %eax,-0x24(%rsp)
  40148e:	8b 44 24 e4          	mov    -0x1c(%rsp),%eax
  401492:	69 c0 a8 2c 00 00    	imul   $0x2ca8,%eax,%eax
  401498:	89 44 24 e4          	mov    %eax,-0x1c(%rsp)
  40149c:	8b 44 24 d8          	mov    -0x28(%rsp),%eax
  4014a0:	69 c0 da ec 00 00    	imul   $0xecda,%eax,%eax
  4014a6:	89 44 24 d8          	mov    %eax,-0x28(%rsp)
  4014aa:	8b 44 24 dc          	mov    -0x24(%rsp),%eax
  4014ae:	69 c0 1b 07 00 00    	imul   $0x71b,%eax,%eax
  4014b4:	89 44 24 dc          	mov    %eax,-0x24(%rsp)
  4014b8:	8b 44 24 ec          	mov    -0x14(%rsp),%eax
  4014bc:	69 c0 d5 87 00 00    	imul   $0x87d5,%eax,%eax
  4014c2:	89 44 24 ec          	mov    %eax,-0x14(%rsp)
  4014c6:	8b 44 24 e0          	mov    -0x20(%rsp),%eax
  4014ca:	69 c0 2b 29 00 00    	imul   $0x292b,%eax,%eax
  4014d0:	89 44 24 e0          	mov    %eax,-0x20(%rsp)
  4014d4:	8b 44 24 cc          	mov    -0x34(%rsp),%eax
  4014d8:	69 c0 52 4d 00 00    	imul   $0x4d52,%eax,%eax
  4014de:	89 44 24 cc          	mov    %eax,-0x34(%rsp)
  4014e2:	8b 44 24 d8          	mov    -0x28(%rsp),%eax
  4014e6:	69 c0 25 68 00 00    	imul   $0x6825,%eax,%eax
  4014ec:	89 44 24 d8          	mov    %eax,-0x28(%rsp)
  4014f0:	8b 44 24 c8          	mov    -0x38(%rsp),%eax
  4014f4:	69 c0 57 e8 00 00    	imul   $0xe857,%eax,%eax
  4014fa:	89 44 24 c8          	mov    %eax,-0x38(%rsp)
  4014fe:	8b 44 24 e4          	mov    -0x1c(%rsp),%eax
  401502:	69 c0 33 cd 00 00    	imul   $0xcd33,%eax,%eax
  401508:	89 44 24 e4          	mov    %eax,-0x1c(%rsp)
  40150c:	8b 44 24 dc          	mov    -0x24(%rsp),%eax
  401510:	69 c0 77 c2 00 00    	imul   $0xc277,%eax,%eax
  401516:	89 44 24 dc          	mov    %eax,-0x24(%rsp)
  40151a:	8b 44 24 dc          	mov    -0x24(%rsp),%eax
  40151e:	69 c0 cf 3b 00 00    	imul   $0x3bcf,%eax,%eax
  401524:	89 44 24 dc          	mov    %eax,-0x24(%rsp)
  401528:	8b 44 24 e8          	mov    -0x18(%rsp),%eax
  40152c:	69 c0 49 b7 00 00    	imul   $0xb749,%eax,%eax
  401532:	89 44 24 e8          	mov    %eax,-0x18(%rsp)
  401536:	8b 44 24 e4          	mov    -0x1c(%rsp),%eax
  40153a:	69 c0 7a d5 00 00    	imul   $0xd57a,%eax,%eax
  401540:	89 44 24 e4          	mov    %eax,-0x1c(%rsp)
  401544:	8b 44 24 e4          	mov    -0x1c(%rsp),%eax
  401548:	69 c0 39 aa 00 00    	imul   $0xaa39,%eax,%eax
  40154e:	89 44 24 e4          	mov    %eax,-0x1c(%rsp)
  401552:	8b 44 24 d4          	mov    -0x2c(%rsp),%eax
  401556:	69 c0 04 d2 00 00    	imul   $0xd204,%eax,%eax
  40155c:	89 44 24 d4          	mov    %eax,-0x2c(%rsp)
  401560:	8b 44 24 ec          	mov    -0x14(%rsp),%eax
  401564:	69 c0 7c 39 00 00    	imul   $0x397c,%eax,%eax
  40156a:	89 44 24 ec          	mov    %eax,-0x14(%rsp)
  40156e:	8b 44 24 ec          	mov    -0x14(%rsp),%eax
  401572:	69 c0 e2 cd 00 00    	imul   $0xcde2,%eax,%eax
  401578:	89 44 24 ec          	mov    %eax,-0x14(%rsp)
  40157c:	8b 44 24 d0          	mov    -0x30(%rsp),%eax
  401580:	69 c0 47 71 00 00    	imul   $0x7147,%eax,%eax
  401586:	89 44 24 d0          	mov    %eax,-0x30(%rsp)
  40158a:	8b 44 24 dc          	mov    -0x24(%rsp),%eax
  40158e:	69 c0 d8 ef 00 00    	imul   $0xefd8,%eax,%eax
  401594:	89 44 24 dc          	mov    %eax,-0x24(%rsp)
  401598:	8b 44 24 ec          	mov    -0x14(%rsp),%eax
  40159c:	69 c0 25 65 00 00    	imul   $0x6525,%eax,%eax
  4015a2:	89 44 24 ec          	mov    %eax,-0x14(%rsp)
  4015a6:	8b 44 24 d4          	mov    -0x2c(%rsp),%eax
  4015aa:	69 c0 11 60 00 00    	imul   $0x6011,%eax,%eax
  4015b0:	89 44 24 d4          	mov    %eax,-0x2c(%rsp)
  4015b4:	8b 44 24 e8          	mov    -0x18(%rsp),%eax
  4015b8:	69 c0 3a d6 00 00    	imul   $0xd63a,%eax,%eax
  4015be:	89 44 24 e8          	mov    %eax,-0x18(%rsp)
  4015c2:	8b 44 24 cc          	mov    -0x34(%rsp),%eax
  4015c6:	69 c0 94 49 00 00    	imul   $0x4994,%eax,%eax
  4015cc:	89 44 24 cc          	mov    %eax,-0x34(%rsp)
  4015d0:	8b 44 24 dc          	mov    -0x24(%rsp),%eax
  4015d4:	69 c0 54 c9 00 00    	imul   $0xc954,%eax,%eax
  4015da:	89 44 24 dc          	mov    %eax,-0x24(%rsp)
  4015de:	8b 44 24 e4          	mov    -0x1c(%rsp),%eax
  4015e2:	69 c0 9d d0 00 00    	imul   $0xd09d,%eax,%eax
  4015e8:	89 44 24 e4          	mov    %eax,-0x1c(%rsp)
  4015ec:	8b 44 24 c8          	mov    -0x38(%rsp),%eax
  4015f0:	69 c0 66 f7 00 00    	imul   $0xf766,%eax,%eax
  4015f6:	89 44 24 c8          	mov    %eax,-0x38(%rsp)
  4015fa:	8b 44 24 e8          	mov    -0x18(%rsp),%eax
  4015fe:	69 c0 d9 89 00 00    	imul   $0x89d9,%eax,%eax
  401604:	89 44 24 e8          	mov    %eax,-0x18(%rsp)
  401608:	8b 44 24 d4          	mov    -0x2c(%rsp),%eax
  40160c:	69 c0 b1 46 00 00    	imul   $0x46b1,%eax,%eax
  401612:	89 44 24 d4          	mov    %eax,-0x2c(%rsp)
  401616:	8b 44 24 d0          	mov    -0x30(%rsp),%eax
  40161a:	69 c0 b1 5f 00 00    	imul   $0x5fb1,%eax,%eax
  401620:	89 44 24 d0          	mov    %eax,-0x30(%rsp)
  401624:	8b 44 24 dc          	mov    -0x24(%rsp),%eax
  401628:	69 c0 e3 d2 00 00    	imul   $0xd2e3,%eax,%eax
  40162e:	89 44 24 dc          	mov    %eax,-0x24(%rsp)
  401632:	8b 44 24 dc          	mov    -0x24(%rsp),%eax
  401636:	69 c0 d9 e3 00 00    	imul   $0xe3d9,%eax,%eax
  40163c:	89 44 24 dc          	mov    %eax,-0x24(%rsp)
  401640:	8b 44 24 e8          	mov    -0x18(%rsp),%eax
  401644:	69 c0 62 30 00 00    	imul   $0x3062,%eax,%eax
  40164a:	89 44 24 e8          	mov    %eax,-0x18(%rsp)
  40164e:	8b 44 24 d0          	mov    -0x30(%rsp),%eax
  401652:	69 c0 b6 32 00 00    	imul   $0x32b6,%eax,%eax
  401658:	89 44 24 d0          	mov    %eax,-0x30(%rsp)
  40165c:	8b 44 24 c8          	mov    -0x38(%rsp),%eax
  401660:	69 c0 ba 86 00 00    	imul   $0x86ba,%eax,%eax
  401666:	89 44 24 c8          	mov    %eax,-0x38(%rsp)
  40166a:	8b 44 24 d4          	mov    -0x2c(%rsp),%eax
  40166e:	69 c0 c7 9a 00 00    	imul   $0x9ac7,%eax,%eax
  401674:	89 44 24 d4          	mov    %eax,-0x2c(%rsp)
  401678:	8b 44 24 e8          	mov    -0x18(%rsp),%eax
  40167c:	69 c0 91 3b 00 00    	imul   $0x3b91,%eax,%eax
  401682:	89 44 24 e8          	mov    %eax,-0x18(%rsp)
  401686:	8b 44 24 d0          	mov    -0x30(%rsp),%eax
  40168a:	69 c0 57 9e 00 00    	imul   $0x9e57,%eax,%eax
  401690:	89 44 24 d0          	mov    %eax,-0x30(%rsp)
  401694:	8b 44 24 e4          	mov    -0x1c(%rsp),%eax
  401698:	69 c0 0e c3 00 00    	imul   $0xc30e,%eax,%eax
  40169e:	89 44 24 e4          	mov    %eax,-0x1c(%rsp)
  4016a2:	8b 44 24 e4          	mov    -0x1c(%rsp),%eax
  4016a6:	69 c0 5d d0 00 00    	imul   $0xd05d,%eax,%eax
  4016ac:	89 44 24 e4          	mov    %eax,-0x1c(%rsp)
  4016b0:	8b 44 24 d8          	mov    -0x28(%rsp),%eax
  4016b4:	69 c0 b2 fe 00 00    	imul   $0xfeb2,%eax,%eax
  4016ba:	89 44 24 d8          	mov    %eax,-0x28(%rsp)
  4016be:	8b 44 24 dc          	mov    -0x24(%rsp),%eax
  4016c2:	69 c0 2e 18 00 00    	imul   $0x182e,%eax,%eax
  4016c8:	89 44 24 dc          	mov    %eax,-0x24(%rsp)
  4016cc:	8b 44 24 d4          	mov    -0x2c(%rsp),%eax
  4016d0:	69 c0 67 ad 00 00    	imul   $0xad67,%eax,%eax
  4016d6:	89 44 24 d4          	mov    %eax,-0x2c(%rsp)
  4016da:	8b 44 24 e0          	mov    -0x20(%rsp),%eax
  4016de:	69 c0 c9 a4 00 00    	imul   $0xa4c9,%eax,%eax
  4016e4:	89 44 24 e0          	mov    %eax,-0x20(%rsp)
  4016e8:	8b 44 24 d0          	mov    -0x30(%rsp),%eax
  4016ec:	69 c0 5b 01 00 00    	imul   $0x15b,%eax,%eax
  4016f2:	89 44 24 d0          	mov    %eax,-0x30(%rsp)
  4016f6:	8b 44 24 c8          	mov    -0x38(%rsp),%eax
  4016fa:	69 c0 02 e5 00 00    	imul   $0xe502,%eax,%eax
  401700:	89 44 24 c8          	mov    %eax,-0x38(%rsp)
  401704:	8b 44 24 e0          	mov    -0x20(%rsp),%eax
  401708:	69 c0 2f 36 00 00    	imul   $0x362f,%eax,%eax
  40170e:	89 44 24 e0          	mov    %eax,-0x20(%rsp)
  401712:	8b 44 24 e0          	mov    -0x20(%rsp),%eax
  401716:	69 c0 9d e0 00 00    	imul   $0xe09d,%eax,%eax
  40171c:	89 44 24 e0          	mov    %eax,-0x20(%rsp)
  401720:	8b 44 24 d0          	mov    -0x30(%rsp),%eax
  401724:	69 c0 98 7a 00 00    	imul   $0x7a98,%eax,%eax
  40172a:	89 44 24 d0          	mov    %eax,-0x30(%rsp)
  40172e:	8b 44 24 e8          	mov    -0x18(%rsp),%eax
  401732:	69 c0 3c 08 00 00    	imul   $0x83c,%eax,%eax
  401738:	89 44 24 e8          	mov    %eax,-0x18(%rsp)
  40173c:	8b 44 24 dc          	mov    -0x24(%rsp),%eax
  401740:	69 c0 e2 35 00 00    	imul   $0x35e2,%eax,%eax
  401746:	89 44 24 dc          	mov    %eax,-0x24(%rsp)
  40174a:	8b 44 24 d8          	mov    -0x28(%rsp),%eax
  40174e:	69 c0 31 ed 00 00    	imul   $0xed31,%eax,%eax
  401754:	89 44 24 d8          	mov    %eax,-0x28(%rsp)
  401758:	8b 44 24 d0          	mov    -0x30(%rsp),%eax
  40175c:	69 c0 db 9d 00 00    	imul   $0x9ddb,%eax,%eax
  401762:	89 44 24 d0          	mov    %eax,-0x30(%rsp)
  401766:	8b 44 24 d4          	mov    -0x2c(%rsp),%eax
  40176a:	69 c0 40 83 00 00    	imul   $0x8340,%eax,%eax
  401770:	89 44 24 d4          	mov    %eax,-0x2c(%rsp)
  401774:	8b 44 24 cc          	mov    -0x34(%rsp),%eax
  401778:	69 c0 73 73 00 00    	imul   $0x7373,%eax,%eax
  40177e:	89 44 24 cc          	mov    %eax,-0x34(%rsp)
  401782:	8b 44 24 e0          	mov    -0x20(%rsp),%eax
  401786:	69 c0 4c ed 00 00    	imul   $0xed4c,%eax,%eax
  40178c:	89 44 24 e0          	mov    %eax,-0x20(%rsp)
  401790:	8b 44 24 ec          	mov    -0x14(%rsp),%eax
  401794:	69 c0 98 f4 00 00    	imul   $0xf498,%eax,%eax
  40179a:	89 44 24 ec          	mov    %eax,-0x14(%rsp)
  40179e:	8b 44 24 d4          	mov    -0x2c(%rsp),%eax
  4017a2:	69 c0 3f 68 00 00    	imul   $0x683f,%eax,%eax
  4017a8:	89 44 24 d4          	mov    %eax,-0x2c(%rsp)
  4017ac:	8b 44 24 e8          	mov    -0x18(%rsp),%eax
  4017b0:	69 c0 82 a7 00 00    	imul   $0xa782,%eax,%eax
  4017b6:	89 44 24 e8          	mov    %eax,-0x18(%rsp)
  4017ba:	8b 44 24 d4          	mov    -0x2c(%rsp),%eax
  4017be:	69 c0 17 96 00 00    	imul   $0x9617,%eax,%eax
  4017c4:	89 44 24 d4          	mov    %eax,-0x2c(%rsp)
  4017c8:	8b 44 24 cc          	mov    -0x34(%rsp),%eax
  4017cc:	69 c0 82 11 00 00    	imul   $0x1182,%eax,%eax
  4017d2:	89 44 24 cc          	mov    %eax,-0x34(%rsp)
  4017d6:	8b 44 24 ec          	mov    -0x14(%rsp),%eax
  4017da:	69 c0 1b 7d 00 00    	imul   $0x7d1b,%eax,%eax
  4017e0:	89 44 24 ec          	mov    %eax,-0x14(%rsp)
  4017e4:	8b 44 24 cc          	mov    -0x34(%rsp),%eax
  4017e8:	69 c0 f5 43 00 00    	imul   $0x43f5,%eax,%eax
  4017ee:	89 44 24 cc          	mov    %eax,-0x34(%rsp)
  4017f2:	8b 44 24 dc          	mov    -0x24(%rsp),%eax
  4017f6:	69 c0 43 ae 00 00    	imul   $0xae43,%eax,%eax
  4017fc:	89 44 24 dc          	mov    %eax,-0x24(%rsp)
  401800:	8b 44 24 d4          	mov    -0x2c(%rsp),%eax
  401804:	69 c0 0d 71 00 00    	imul   $0x710d,%eax,%eax
  40180a:	89 44 24 d4          	mov    %eax,-0x2c(%rsp)
  40180e:	8b 44 24 ec          	mov    -0x14(%rsp),%eax
  401812:	69 c0 df bf 00 00    	imul   $0xbfdf,%eax,%eax
  401818:	89 44 24 ec          	mov    %eax,-0x14(%rsp)
  40181c:	8b 44 24 ec          	mov    -0x14(%rsp),%eax
  401820:	69 c0 82 59 00 00    	imul   $0x5982,%eax,%eax
  401826:	89 44 24 ec          	mov    %eax,-0x14(%rsp)
  40182a:	8b 44 24 dc          	mov    -0x24(%rsp),%eax
  40182e:	69 c0 63 18 00 00    	imul   $0x1863,%eax,%eax
  401834:	89 44 24 dc          	mov    %eax,-0x24(%rsp)
  401838:	8b 44 24 d4          	mov    -0x2c(%rsp),%eax
  40183c:	69 c0 99 38 00 00    	imul   $0x3899,%eax,%eax
  401842:	89 44 24 d4          	mov    %eax,-0x2c(%rsp)
  401846:	8b 44 24 dc          	mov    -0x24(%rsp),%eax
  40184a:	69 c0 47 58 00 00    	imul   $0x5847,%eax,%eax
  401850:	89 44 24 dc          	mov    %eax,-0x24(%rsp)
  401854:	8b 44 24 cc          	mov    -0x34(%rsp),%eax
  401858:	69 c0 41 ef 00 00    	imul   $0xef41,%eax,%eax
  40185e:	89 44 24 cc          	mov    %eax,-0x34(%rsp)
  401862:	8b 44 24 d4          	mov    -0x2c(%rsp),%eax
  401866:	69 c0 33 1e 00 00    	imul   $0x1e33,%eax,%eax
  40186c:	89 44 24 d4          	mov    %eax,-0x2c(%rsp)
  401870:	8b 44 24 d8          	mov    -0x28(%rsp),%eax
  401874:	69 c0 0e 4b 00 00    	imul   $0x4b0e,%eax,%eax
  40187a:	89 44 24 d8          	mov    %eax,-0x28(%rsp)
  40187e:	8b 44 24 e4          	mov    -0x1c(%rsp),%eax
  401882:	69 c0 d8 85 00 00    	imul   $0x85d8,%eax,%eax
  401888:	89 44 24 e4          	mov    %eax,-0x1c(%rsp)
  40188c:	8b 44 24 e4          	mov    -0x1c(%rsp),%eax
  401890:	69 c0 7a 93 00 00    	imul   $0x937a,%eax,%eax
  401896:	89 44 24 e4          	mov    %eax,-0x1c(%rsp)
  40189a:	8b 44 24 d8          	mov    -0x28(%rsp),%eax
  40189e:	69 c0 6e 9b 00 00    	imul   $0x9b6e,%eax,%eax
  4018a4:	89 44 24 d8          	mov    %eax,-0x28(%rsp)
  4018a8:	8b 44 24 e0          	mov    -0x20(%rsp),%eax
  4018ac:	69 c0 08 97 00 00    	imul   $0x9708,%eax,%eax
  4018b2:	89 44 24 e0          	mov    %eax,-0x20(%rsp)
  4018b6:	8b 44 24 e8          	mov    -0x18(%rsp),%eax
  4018ba:	69 c0 ad ec 00 00    	imul   $0xecad,%eax,%eax
  4018c0:	89 44 24 e8          	mov    %eax,-0x18(%rsp)
  4018c4:	8b 44 24 cc          	mov    -0x34(%rsp),%eax
  4018c8:	69 c0 43 76 00 00    	imul   $0x7643,%eax,%eax
  4018ce:	89 44 24 cc          	mov    %eax,-0x34(%rsp)
  4018d2:	8b 44 24 d0          	mov    -0x30(%rsp),%eax
  4018d6:	69 c0 8b 99 00 00    	imul   $0x998b,%eax,%eax
  4018dc:	89 44 24 d0          	mov    %eax,-0x30(%rsp)
  4018e0:	8b 44 24 cc          	mov    -0x34(%rsp),%eax
  4018e4:	69 c0 70 51 00 00    	imul   $0x5170,%eax,%eax
  4018ea:	89 44 24 cc          	mov    %eax,-0x34(%rsp)
  4018ee:	ba 00 00 00 00       	mov    $0x0,%edx
  4018f3:	b8 00 00 00 00       	mov    $0x0,%eax
  4018f8:	eb 0b                	jmp    401905 <scramble+0x566>
  4018fa:	89 d1                	mov    %edx,%ecx
  4018fc:	8b 4c 8c c8          	mov    -0x38(%rsp,%rcx,4),%ecx
  401900:	01 c8                	add    %ecx,%eax
  401902:	83 c2 01             	add    $0x1,%edx
  401905:	83 fa 09             	cmp    $0x9,%edx
  401908:	76 f0                	jbe    4018fa <scramble+0x55b>
  40190a:	f3 c3                	repz retq 

000000000040190c <getbuf>:
  40190c:	48 83 ec 28          	sub    $0x28,%rsp
  401910:	48 89 e7             	mov    %rsp,%rdi
  401913:	e8 7e 02 00 00       	callq  401b96 <Gets>
  401918:	b8 01 00 00 00       	mov    $0x1,%eax
  40191d:	48 83 c4 28          	add    $0x28,%rsp
  401921:	c3                   	retq   

0000000000401922 <touch1>:
  401922:	48 83 ec 08          	sub    $0x8,%rsp
  401926:	c7 05 ec 2b 20 00 01 	movl   $0x1,0x202bec(%rip)        # 60451c <vlevel>
  40192d:	00 00 00 
  401930:	bf 16 32 40 00       	mov    $0x403216,%edi
  401935:	e8 a6 f3 ff ff       	callq  400ce0 <puts@plt>
  40193a:	bf 01 00 00 00       	mov    $0x1,%edi
  40193f:	e8 97 04 00 00       	callq  401ddb <validate>
  401944:	bf 00 00 00 00       	mov    $0x0,%edi
  401949:	e8 22 f5 ff ff       	callq  400e70 <exit@plt>

000000000040194e <touch2>:
  40194e:	48 83 ec 08          	sub    $0x8,%rsp
  401952:	89 fa                	mov    %edi,%edx
  401954:	c7 05 be 2b 20 00 02 	movl   $0x2,0x202bbe(%rip)        # 60451c <vlevel>
  40195b:	00 00 00 
  40195e:	39 3d c0 2b 20 00    	cmp    %edi,0x202bc0(%rip)        # 604524 <cookie>
  401964:	75 20                	jne    401986 <touch2+0x38>
  401966:	be 38 32 40 00       	mov    $0x403238,%esi
  40196b:	bf 01 00 00 00       	mov    $0x1,%edi
  401970:	b8 00 00 00 00       	mov    $0x0,%eax
  401975:	e8 a6 f4 ff ff       	callq  400e20 <__printf_chk@plt>
  40197a:	bf 02 00 00 00       	mov    $0x2,%edi
  40197f:	e8 57 04 00 00       	callq  401ddb <validate>
  401984:	eb 1e                	jmp    4019a4 <touch2+0x56>
  401986:	be 60 32 40 00       	mov    $0x403260,%esi
  40198b:	bf 01 00 00 00       	mov    $0x1,%edi
  401990:	b8 00 00 00 00       	mov    $0x0,%eax
  401995:	e8 86 f4 ff ff       	callq  400e20 <__printf_chk@plt>
  40199a:	bf 02 00 00 00       	mov    $0x2,%edi
  40199f:	e8 f9 04 00 00       	callq  401e9d <fail>
  4019a4:	bf 00 00 00 00       	mov    $0x0,%edi
  4019a9:	e8 c2 f4 ff ff       	callq  400e70 <exit@plt>

00000000004019ae <hexmatch>:
  4019ae:	41 54                	push   %r12
  4019b0:	55                   	push   %rbp
  4019b1:	53                   	push   %rbx
  4019b2:	48 83 c4 80          	add    $0xffffffffffffff80,%rsp
  4019b6:	89 fd                	mov    %edi,%ebp
  4019b8:	48 89 f3             	mov    %rsi,%rbx
  4019bb:	64 48 8b 04 25 28 00 	mov    %fs:0x28,%rax
  4019c2:	00 00 
  4019c4:	48 89 44 24 78       	mov    %rax,0x78(%rsp)
  4019c9:	31 c0                	xor    %eax,%eax
  4019cb:	e8 10 f4 ff ff       	callq  400de0 <random@plt>
  4019d0:	48 89 c1             	mov    %rax,%rcx
  4019d3:	48 ba 0b d7 a3 70 3d 	movabs $0xa3d70a3d70a3d70b,%rdx
  4019da:	0a d7 a3 
  4019dd:	48 f7 ea             	imul   %rdx
  4019e0:	48 01 ca             	add    %rcx,%rdx
  4019e3:	48 c1 fa 06          	sar    $0x6,%rdx
  4019e7:	48 89 c8             	mov    %rcx,%rax
  4019ea:	48 c1 f8 3f          	sar    $0x3f,%rax
  4019ee:	48 29 c2             	sub    %rax,%rdx
  4019f1:	48 8d 04 92          	lea    (%rdx,%rdx,4),%rax
  4019f5:	48 8d 14 80          	lea    (%rax,%rax,4),%rdx
  4019f9:	48 8d 04 95 00 00 00 	lea    0x0(,%rdx,4),%rax
  401a00:	00 
  401a01:	48 29 c1             	sub    %rax,%rcx
  401a04:	4c 8d 24 0c          	lea    (%rsp,%rcx,1),%r12
  401a08:	41 89 e8             	mov    %ebp,%r8d
  401a0b:	b9 33 32 40 00       	mov    $0x403233,%ecx
  401a10:	48 c7 c2 ff ff ff ff 	mov    $0xffffffffffffffff,%rdx
  401a17:	be 01 00 00 00       	mov    $0x1,%esi
  401a1c:	4c 89 e7             	mov    %r12,%rdi
  401a1f:	b8 00 00 00 00       	mov    $0x0,%eax
  401a24:	e8 77 f4 ff ff       	callq  400ea0 <__sprintf_chk@plt>
  401a29:	ba 09 00 00 00       	mov    $0x9,%edx
  401a2e:	4c 89 e6             	mov    %r12,%rsi
  401a31:	48 89 df             	mov    %rbx,%rdi
  401a34:	e8 87 f2 ff ff       	callq  400cc0 <strncmp@plt>
  401a39:	85 c0                	test   %eax,%eax
  401a3b:	0f 94 c0             	sete   %al
  401a3e:	48 8b 5c 24 78       	mov    0x78(%rsp),%rbx
  401a43:	64 48 33 1c 25 28 00 	xor    %fs:0x28,%rbx
  401a4a:	00 00 
  401a4c:	74 05                	je     401a53 <hexmatch+0xa5>
  401a4e:	e8 ad f2 ff ff       	callq  400d00 <__stack_chk_fail@plt>
  401a53:	0f b6 c0             	movzbl %al,%eax
  401a56:	48 83 ec 80          	sub    $0xffffffffffffff80,%rsp
  401a5a:	5b                   	pop    %rbx
  401a5b:	5d                   	pop    %rbp
  401a5c:	41 5c                	pop    %r12
  401a5e:	c3                   	retq   

0000000000401a5f <touch3>:
  401a5f:	53                   	push   %rbx
  401a60:	48 89 fb             	mov    %rdi,%rbx
  401a63:	c7 05 af 2a 20 00 03 	movl   $0x3,0x202aaf(%rip)        # 60451c <vlevel>
  401a6a:	00 00 00 
  401a6d:	48 89 fe             	mov    %rdi,%rsi
  401a70:	8b 3d ae 2a 20 00    	mov    0x202aae(%rip),%edi        # 604524 <cookie>
  401a76:	e8 33 ff ff ff       	callq  4019ae <hexmatch>
  401a7b:	85 c0                	test   %eax,%eax
  401a7d:	74 23                	je     401aa2 <touch3+0x43>
  401a7f:	48 89 da             	mov    %rbx,%rdx
  401a82:	be 88 32 40 00       	mov    $0x403288,%esi
  401a87:	bf 01 00 00 00       	mov    $0x1,%edi
  401a8c:	b8 00 00 00 00       	mov    $0x0,%eax
  401a91:	e8 8a f3 ff ff       	callq  400e20 <__printf_chk@plt>
  401a96:	bf 03 00 00 00       	mov    $0x3,%edi
  401a9b:	e8 3b 03 00 00       	callq  401ddb <validate>
  401aa0:	eb 21                	jmp    401ac3 <touch3+0x64>
  401aa2:	48 89 da             	mov    %rbx,%rdx
  401aa5:	be b0 32 40 00       	mov    $0x4032b0,%esi
  401aaa:	bf 01 00 00 00       	mov    $0x1,%edi
  401aaf:	b8 00 00 00 00       	mov    $0x0,%eax
  401ab4:	e8 67 f3 ff ff       	callq  400e20 <__printf_chk@plt>
  401ab9:	bf 03 00 00 00       	mov    $0x3,%edi
  401abe:	e8 da 03 00 00       	callq  401e9d <fail>
  401ac3:	bf 00 00 00 00       	mov    $0x0,%edi
  401ac8:	e8 a3 f3 ff ff       	callq  400e70 <exit@plt>

0000000000401acd <test>:
  401acd:	48 83 ec 08          	sub    $0x8,%rsp
  401ad1:	b8 00 00 00 00       	mov    $0x0,%eax
  401ad6:	e8 31 fe ff ff       	callq  40190c <getbuf>
  401adb:	89 c2                	mov    %eax,%edx
  401add:	be d8 32 40 00       	mov    $0x4032d8,%esi
  401ae2:	bf 01 00 00 00       	mov    $0x1,%edi
  401ae7:	b8 00 00 00 00       	mov    $0x0,%eax
  401aec:	e8 2f f3 ff ff       	callq  400e20 <__printf_chk@plt>
  401af1:	48 83 c4 08          	add    $0x8,%rsp
  401af5:	c3                   	retq   

0000000000401af6 <save_char>:
  401af6:	8b 05 48 36 20 00    	mov    0x203648(%rip),%eax        # 605144 <gets_cnt>
  401afc:	3d ff 03 00 00       	cmp    $0x3ff,%eax
  401b01:	7f 49                	jg     401b4c <save_char+0x56>
  401b03:	8d 14 40             	lea    (%rax,%rax,2),%edx
  401b06:	89 f9                	mov    %edi,%ecx
  401b08:	c0 e9 04             	shr    $0x4,%cl
  401b0b:	83 e1 0f             	and    $0xf,%ecx
  401b0e:	0f b6 b1 00 36 40 00 	movzbl 0x403600(%rcx),%esi
  401b15:	48 63 ca             	movslq %edx,%rcx
  401b18:	40 88 b1 40 45 60 00 	mov    %sil,0x604540(%rcx)
  401b1f:	8d 4a 01             	lea    0x1(%rdx),%ecx
  401b22:	83 e7 0f             	and    $0xf,%edi
  401b25:	0f b6 b7 00 36 40 00 	movzbl 0x403600(%rdi),%esi
  401b2c:	48 63 c9             	movslq %ecx,%rcx
  401b2f:	40 88 b1 40 45 60 00 	mov    %sil,0x604540(%rcx)
  401b36:	83 c2 02             	add    $0x2,%edx
  401b39:	48 63 d2             	movslq %edx,%rdx
  401b3c:	c6 82 40 45 60 00 20 	movb   $0x20,0x604540(%rdx)
  401b43:	83 c0 01             	add    $0x1,%eax
  401b46:	89 05 f8 35 20 00    	mov    %eax,0x2035f8(%rip)        # 605144 <gets_cnt>
  401b4c:	f3 c3                	repz retq 

0000000000401b4e <save_term>:
  401b4e:	8b 05 f0 35 20 00    	mov    0x2035f0(%rip),%eax        # 605144 <gets_cnt>
  401b54:	8d 04 40             	lea    (%rax,%rax,2),%eax
  401b57:	48 98                	cltq   
  401b59:	c6 80 40 45 60 00 00 	movb   $0x0,0x604540(%rax)
  401b60:	c3                   	retq   

0000000000401b61 <check_fail>:
  401b61:	48 83 ec 08          	sub    $0x8,%rsp
  401b65:	0f be 15 dc 35 20 00 	movsbl 0x2035dc(%rip),%edx        # 605148 <target_prefix>
  401b6c:	41 b8 40 45 60 00    	mov    $0x604540,%r8d
  401b72:	8b 0d a0 29 20 00    	mov    0x2029a0(%rip),%ecx        # 604518 <check_level>
  401b78:	be fb 32 40 00       	mov    $0x4032fb,%esi
  401b7d:	bf 01 00 00 00       	mov    $0x1,%edi
  401b82:	b8 00 00 00 00       	mov    $0x0,%eax
  401b87:	e8 94 f2 ff ff       	callq  400e20 <__printf_chk@plt>
  401b8c:	bf 01 00 00 00       	mov    $0x1,%edi
  401b91:	e8 da f2 ff ff       	callq  400e70 <exit@plt>

0000000000401b96 <Gets>:
  401b96:	41 54                	push   %r12
  401b98:	55                   	push   %rbp
  401b99:	53                   	push   %rbx
  401b9a:	49 89 fc             	mov    %rdi,%r12
  401b9d:	c7 05 9d 35 20 00 00 	movl   $0x0,0x20359d(%rip)        # 605144 <gets_cnt>
  401ba4:	00 00 00 
  401ba7:	48 89 fb             	mov    %rdi,%rbx
  401baa:	eb 11                	jmp    401bbd <Gets+0x27>
  401bac:	48 8d 6b 01          	lea    0x1(%rbx),%rbp
  401bb0:	88 03                	mov    %al,(%rbx)
  401bb2:	0f b6 f8             	movzbl %al,%edi
  401bb5:	e8 3c ff ff ff       	callq  401af6 <save_char>
  401bba:	48 89 eb             	mov    %rbp,%rbx
  401bbd:	48 8b 3d 4c 29 20 00 	mov    0x20294c(%rip),%rdi        # 604510 <infile>
  401bc4:	e8 27 f2 ff ff       	callq  400df0 <_IO_getc@plt>
  401bc9:	83 f8 ff             	cmp    $0xffffffff,%eax
  401bcc:	74 05                	je     401bd3 <Gets+0x3d>
  401bce:	83 f8 0a             	cmp    $0xa,%eax
  401bd1:	75 d9                	jne    401bac <Gets+0x16>
  401bd3:	c6 03 00             	movb   $0x0,(%rbx)
  401bd6:	b8 00 00 00 00       	mov    $0x0,%eax
  401bdb:	e8 6e ff ff ff       	callq  401b4e <save_term>
  401be0:	4c 89 e0             	mov    %r12,%rax
  401be3:	5b                   	pop    %rbx
  401be4:	5d                   	pop    %rbp
  401be5:	41 5c                	pop    %r12
  401be7:	c3                   	retq   

0000000000401be8 <notify_server>:
  401be8:	53                   	push   %rbx
  401be9:	48 81 ec 10 40 00 00 	sub    $0x4010,%rsp
  401bf0:	64 48 8b 04 25 28 00 	mov    %fs:0x28,%rax
  401bf7:	00 00 
  401bf9:	48 89 84 24 08 40 00 	mov    %rax,0x4008(%rsp)
  401c00:	00 
  401c01:	31 c0                	xor    %eax,%eax
  401c03:	83 3d 1e 29 20 00 00 	cmpl   $0x0,0x20291e(%rip)        # 604528 <is_checker>
  401c0a:	0f 85 aa 01 00 00    	jne    401dba <notify_server+0x1d2>
  401c10:	89 fb                	mov    %edi,%ebx
  401c12:	8b 05 2c 35 20 00    	mov    0x20352c(%rip),%eax        # 605144 <gets_cnt>
  401c18:	83 c0 64             	add    $0x64,%eax
  401c1b:	3d 00 20 00 00       	cmp    $0x2000,%eax
  401c20:	7e 1e                	jle    401c40 <notify_server+0x58>
  401c22:	be 30 34 40 00       	mov    $0x403430,%esi
  401c27:	bf 01 00 00 00       	mov    $0x1,%edi
  401c2c:	b8 00 00 00 00       	mov    $0x0,%eax
  401c31:	e8 ea f1 ff ff       	callq  400e20 <__printf_chk@plt>
  401c36:	bf 01 00 00 00       	mov    $0x1,%edi
  401c3b:	e8 30 f2 ff ff       	callq  400e70 <exit@plt>
  401c40:	0f be 05 01 35 20 00 	movsbl 0x203501(%rip),%eax        # 605148 <target_prefix>
  401c47:	83 3d 5a 28 20 00 00 	cmpl   $0x0,0x20285a(%rip)        # 6044a8 <notify>
  401c4e:	74 08                	je     401c58 <notify_server+0x70>
  401c50:	8b 15 ca 28 20 00    	mov    0x2028ca(%rip),%edx        # 604520 <authkey>
  401c56:	eb 05                	jmp    401c5d <notify_server+0x75>
  401c58:	ba ff ff ff ff       	mov    $0xffffffff,%edx
  401c5d:	85 db                	test   %ebx,%ebx
  401c5f:	74 08                	je     401c69 <notify_server+0x81>
  401c61:	41 b9 11 33 40 00    	mov    $0x403311,%r9d
  401c67:	eb 06                	jmp    401c6f <notify_server+0x87>
  401c69:	41 b9 16 33 40 00    	mov    $0x403316,%r9d
  401c6f:	68 40 45 60 00       	pushq  $0x604540
  401c74:	56                   	push   %rsi
  401c75:	50                   	push   %rax
  401c76:	52                   	push   %rdx
  401c77:	44 8b 05 ea 24 20 00 	mov    0x2024ea(%rip),%r8d        # 604168 <target_id>
  401c7e:	b9 1b 33 40 00       	mov    $0x40331b,%ecx
  401c83:	ba 00 20 00 00       	mov    $0x2000,%edx
  401c88:	be 01 00 00 00       	mov    $0x1,%esi
  401c8d:	48 8d 7c 24 20       	lea    0x20(%rsp),%rdi
  401c92:	b8 00 00 00 00       	mov    $0x0,%eax
  401c97:	e8 04 f2 ff ff       	callq  400ea0 <__sprintf_chk@plt>
  401c9c:	48 83 c4 20          	add    $0x20,%rsp
  401ca0:	83 3d 01 28 20 00 00 	cmpl   $0x0,0x202801(%rip)        # 6044a8 <notify>
  401ca7:	0f 84 81 00 00 00    	je     401d2e <notify_server+0x146>
  401cad:	85 db                	test   %ebx,%ebx
  401caf:	74 6e                	je     401d1f <notify_server+0x137>
  401cb1:	4c 8d 8c 24 00 20 00 	lea    0x2000(%rsp),%r9
  401cb8:	00 
  401cb9:	41 b8 00 00 00 00    	mov    $0x0,%r8d
  401cbf:	48 89 e1             	mov    %rsp,%rcx
  401cc2:	48 8b 15 a7 24 20 00 	mov    0x2024a7(%rip),%rdx        # 604170 <lab>
  401cc9:	48 8b 35 a8 24 20 00 	mov    0x2024a8(%rip),%rsi        # 604178 <course>
  401cd0:	48 8b 3d 89 24 20 00 	mov    0x202489(%rip),%rdi        # 604160 <user_id>
  401cd7:	e8 bb 10 00 00       	callq  402d97 <driver_post>
  401cdc:	85 c0                	test   %eax,%eax
  401cde:	79 26                	jns    401d06 <notify_server+0x11e>
  401ce0:	48 8d 94 24 00 20 00 	lea    0x2000(%rsp),%rdx
  401ce7:	00 
  401ce8:	be 37 33 40 00       	mov    $0x403337,%esi
  401ced:	bf 01 00 00 00       	mov    $0x1,%edi
  401cf2:	b8 00 00 00 00       	mov    $0x0,%eax
  401cf7:	e8 24 f1 ff ff       	callq  400e20 <__printf_chk@plt>
  401cfc:	bf 01 00 00 00       	mov    $0x1,%edi
  401d01:	e8 6a f1 ff ff       	callq  400e70 <exit@plt>
  401d06:	bf 60 34 40 00       	mov    $0x403460,%edi
  401d0b:	e8 d0 ef ff ff       	callq  400ce0 <puts@plt>
  401d10:	bf 43 33 40 00       	mov    $0x403343,%edi
  401d15:	e8 c6 ef ff ff       	callq  400ce0 <puts@plt>
  401d1a:	e9 9b 00 00 00       	jmpq   401dba <notify_server+0x1d2>
  401d1f:	bf 4d 33 40 00       	mov    $0x40334d,%edi
  401d24:	e8 b7 ef ff ff       	callq  400ce0 <puts@plt>
  401d29:	e9 8c 00 00 00       	jmpq   401dba <notify_server+0x1d2>
  401d2e:	85 db                	test   %ebx,%ebx
  401d30:	74 07                	je     401d39 <notify_server+0x151>
  401d32:	ba 11 33 40 00       	mov    $0x403311,%edx
  401d37:	eb 05                	jmp    401d3e <notify_server+0x156>
  401d39:	ba 16 33 40 00       	mov    $0x403316,%edx
  401d3e:	be 98 34 40 00       	mov    $0x403498,%esi
  401d43:	bf 01 00 00 00       	mov    $0x1,%edi
  401d48:	b8 00 00 00 00       	mov    $0x0,%eax
  401d4d:	e8 ce f0 ff ff       	callq  400e20 <__printf_chk@plt>
  401d52:	48 8b 15 07 24 20 00 	mov    0x202407(%rip),%rdx        # 604160 <user_id>
  401d59:	be 54 33 40 00       	mov    $0x403354,%esi
  401d5e:	bf 01 00 00 00       	mov    $0x1,%edi
  401d63:	b8 00 00 00 00       	mov    $0x0,%eax
  401d68:	e8 b3 f0 ff ff       	callq  400e20 <__printf_chk@plt>
  401d6d:	48 8b 15 04 24 20 00 	mov    0x202404(%rip),%rdx        # 604178 <course>
  401d74:	be 61 33 40 00       	mov    $0x403361,%esi
  401d79:	bf 01 00 00 00       	mov    $0x1,%edi
  401d7e:	b8 00 00 00 00       	mov    $0x0,%eax
  401d83:	e8 98 f0 ff ff       	callq  400e20 <__printf_chk@plt>
  401d88:	48 8b 15 e1 23 20 00 	mov    0x2023e1(%rip),%rdx        # 604170 <lab>
  401d8f:	be 6d 33 40 00       	mov    $0x40336d,%esi
  401d94:	bf 01 00 00 00       	mov    $0x1,%edi
  401d99:	b8 00 00 00 00       	mov    $0x0,%eax
  401d9e:	e8 7d f0 ff ff       	callq  400e20 <__printf_chk@plt>
  401da3:	48 89 e2             	mov    %rsp,%rdx
  401da6:	be 76 33 40 00       	mov    $0x403376,%esi
  401dab:	bf 01 00 00 00       	mov    $0x1,%edi
  401db0:	b8 00 00 00 00       	mov    $0x0,%eax
  401db5:	e8 66 f0 ff ff       	callq  400e20 <__printf_chk@plt>
  401dba:	48 8b 84 24 08 40 00 	mov    0x4008(%rsp),%rax
  401dc1:	00 
  401dc2:	64 48 33 04 25 28 00 	xor    %fs:0x28,%rax
  401dc9:	00 00 
  401dcb:	74 05                	je     401dd2 <notify_server+0x1ea>
  401dcd:	e8 2e ef ff ff       	callq  400d00 <__stack_chk_fail@plt>
  401dd2:	48 81 c4 10 40 00 00 	add    $0x4010,%rsp
  401dd9:	5b                   	pop    %rbx
  401dda:	c3                   	retq   

0000000000401ddb <validate>:
  401ddb:	53                   	push   %rbx
  401ddc:	89 fb                	mov    %edi,%ebx
  401dde:	83 3d 43 27 20 00 00 	cmpl   $0x0,0x202743(%rip)        # 604528 <is_checker>
  401de5:	74 6b                	je     401e52 <validate+0x77>
  401de7:	39 3d 2f 27 20 00    	cmp    %edi,0x20272f(%rip)        # 60451c <vlevel>
  401ded:	74 14                	je     401e03 <validate+0x28>
  401def:	bf 82 33 40 00       	mov    $0x403382,%edi
  401df4:	e8 e7 ee ff ff       	callq  400ce0 <puts@plt>
  401df9:	b8 00 00 00 00       	mov    $0x0,%eax
  401dfe:	e8 5e fd ff ff       	callq  401b61 <check_fail>
  401e03:	8b 15 0f 27 20 00    	mov    0x20270f(%rip),%edx        # 604518 <check_level>
  401e09:	39 d7                	cmp    %edx,%edi
  401e0b:	74 20                	je     401e2d <validate+0x52>
  401e0d:	89 f9                	mov    %edi,%ecx
  401e0f:	be c0 34 40 00       	mov    $0x4034c0,%esi
  401e14:	bf 01 00 00 00       	mov    $0x1,%edi
  401e19:	b8 00 00 00 00       	mov    $0x0,%eax
  401e1e:	e8 fd ef ff ff       	callq  400e20 <__printf_chk@plt>
  401e23:	b8 00 00 00 00       	mov    $0x0,%eax
  401e28:	e8 34 fd ff ff       	callq  401b61 <check_fail>
  401e2d:	0f be 15 14 33 20 00 	movsbl 0x203314(%rip),%edx        # 605148 <target_prefix>
  401e34:	41 b8 40 45 60 00    	mov    $0x604540,%r8d
  401e3a:	89 f9                	mov    %edi,%ecx
  401e3c:	be a0 33 40 00       	mov    $0x4033a0,%esi
  401e41:	bf 01 00 00 00       	mov    $0x1,%edi
  401e46:	b8 00 00 00 00       	mov    $0x0,%eax
  401e4b:	e8 d0 ef ff ff       	callq  400e20 <__printf_chk@plt>
  401e50:	eb 49                	jmp    401e9b <validate+0xc0>
  401e52:	3b 3d c4 26 20 00    	cmp    0x2026c4(%rip),%edi        # 60451c <vlevel>
  401e58:	74 18                	je     401e72 <validate+0x97>
  401e5a:	bf 82 33 40 00       	mov    $0x403382,%edi
  401e5f:	e8 7c ee ff ff       	callq  400ce0 <puts@plt>
  401e64:	89 de                	mov    %ebx,%esi
  401e66:	bf 00 00 00 00       	mov    $0x0,%edi
  401e6b:	e8 78 fd ff ff       	callq  401be8 <notify_server>
  401e70:	eb 29                	jmp    401e9b <validate+0xc0>
  401e72:	0f be 0d cf 32 20 00 	movsbl 0x2032cf(%rip),%ecx        # 605148 <target_prefix>
  401e79:	89 fa                	mov    %edi,%edx
  401e7b:	be e8 34 40 00       	mov    $0x4034e8,%esi
  401e80:	bf 01 00 00 00       	mov    $0x1,%edi
  401e85:	b8 00 00 00 00       	mov    $0x0,%eax
  401e8a:	e8 91 ef ff ff       	callq  400e20 <__printf_chk@plt>
  401e8f:	89 de                	mov    %ebx,%esi
  401e91:	bf 01 00 00 00       	mov    $0x1,%edi
  401e96:	e8 4d fd ff ff       	callq  401be8 <notify_server>
  401e9b:	5b                   	pop    %rbx
  401e9c:	c3                   	retq   

0000000000401e9d <fail>:
  401e9d:	48 83 ec 08          	sub    $0x8,%rsp
  401ea1:	83 3d 80 26 20 00 00 	cmpl   $0x0,0x202680(%rip)        # 604528 <is_checker>
  401ea8:	74 0a                	je     401eb4 <fail+0x17>
  401eaa:	b8 00 00 00 00       	mov    $0x0,%eax
  401eaf:	e8 ad fc ff ff       	callq  401b61 <check_fail>
  401eb4:	89 fe                	mov    %edi,%esi
  401eb6:	bf 00 00 00 00       	mov    $0x0,%edi
  401ebb:	e8 28 fd ff ff       	callq  401be8 <notify_server>
  401ec0:	48 83 c4 08          	add    $0x8,%rsp
  401ec4:	c3                   	retq   

0000000000401ec5 <bushandler>:
  401ec5:	48 83 ec 08          	sub    $0x8,%rsp
  401ec9:	83 3d 58 26 20 00 00 	cmpl   $0x0,0x202658(%rip)        # 604528 <is_checker>
  401ed0:	74 14                	je     401ee6 <bushandler+0x21>
  401ed2:	bf b5 33 40 00       	mov    $0x4033b5,%edi
  401ed7:	e8 04 ee ff ff       	callq  400ce0 <puts@plt>
  401edc:	b8 00 00 00 00       	mov    $0x0,%eax
  401ee1:	e8 7b fc ff ff       	callq  401b61 <check_fail>
  401ee6:	bf 20 35 40 00       	mov    $0x403520,%edi
  401eeb:	e8 f0 ed ff ff       	callq  400ce0 <puts@plt>
  401ef0:	bf bf 33 40 00       	mov    $0x4033bf,%edi
  401ef5:	e8 e6 ed ff ff       	callq  400ce0 <puts@plt>
  401efa:	be 00 00 00 00       	mov    $0x0,%esi
  401eff:	bf 00 00 00 00       	mov    $0x0,%edi
  401f04:	e8 df fc ff ff       	callq  401be8 <notify_server>
  401f09:	bf 01 00 00 00       	mov    $0x1,%edi
  401f0e:	e8 5d ef ff ff       	callq  400e70 <exit@plt>

0000000000401f13 <seghandler>:
  401f13:	48 83 ec 08          	sub    $0x8,%rsp
  401f17:	83 3d 0a 26 20 00 00 	cmpl   $0x0,0x20260a(%rip)        # 604528 <is_checker>
  401f1e:	74 14                	je     401f34 <seghandler+0x21>
  401f20:	bf d5 33 40 00       	mov    $0x4033d5,%edi
  401f25:	e8 b6 ed ff ff       	callq  400ce0 <puts@plt>
  401f2a:	b8 00 00 00 00       	mov    $0x0,%eax
  401f2f:	e8 2d fc ff ff       	callq  401b61 <check_fail>
  401f34:	bf 40 35 40 00       	mov    $0x403540,%edi
  401f39:	e8 a2 ed ff ff       	callq  400ce0 <puts@plt>
  401f3e:	bf bf 33 40 00       	mov    $0x4033bf,%edi
  401f43:	e8 98 ed ff ff       	callq  400ce0 <puts@plt>
  401f48:	be 00 00 00 00       	mov    $0x0,%esi
  401f4d:	bf 00 00 00 00       	mov    $0x0,%edi
  401f52:	e8 91 fc ff ff       	callq  401be8 <notify_server>
  401f57:	bf 01 00 00 00       	mov    $0x1,%edi
  401f5c:	e8 0f ef ff ff       	callq  400e70 <exit@plt>

0000000000401f61 <illegalhandler>:
  401f61:	48 83 ec 08          	sub    $0x8,%rsp
  401f65:	83 3d bc 25 20 00 00 	cmpl   $0x0,0x2025bc(%rip)        # 604528 <is_checker>
  401f6c:	74 14                	je     401f82 <illegalhandler+0x21>
  401f6e:	bf e8 33 40 00       	mov    $0x4033e8,%edi
  401f73:	e8 68 ed ff ff       	callq  400ce0 <puts@plt>
  401f78:	b8 00 00 00 00       	mov    $0x0,%eax
  401f7d:	e8 df fb ff ff       	callq  401b61 <check_fail>
  401f82:	bf 68 35 40 00       	mov    $0x403568,%edi
  401f87:	e8 54 ed ff ff       	callq  400ce0 <puts@plt>
  401f8c:	bf bf 33 40 00       	mov    $0x4033bf,%edi
  401f91:	e8 4a ed ff ff       	callq  400ce0 <puts@plt>
  401f96:	be 00 00 00 00       	mov    $0x0,%esi
  401f9b:	bf 00 00 00 00       	mov    $0x0,%edi
  401fa0:	e8 43 fc ff ff       	callq  401be8 <notify_server>
  401fa5:	bf 01 00 00 00       	mov    $0x1,%edi
  401faa:	e8 c1 ee ff ff       	callq  400e70 <exit@plt>

0000000000401faf <sigalrmhandler>:
  401faf:	48 83 ec 08          	sub    $0x8,%rsp
  401fb3:	83 3d 6e 25 20 00 00 	cmpl   $0x0,0x20256e(%rip)        # 604528 <is_checker>
  401fba:	74 14                	je     401fd0 <sigalrmhandler+0x21>
  401fbc:	bf fc 33 40 00       	mov    $0x4033fc,%edi
  401fc1:	e8 1a ed ff ff       	callq  400ce0 <puts@plt>
  401fc6:	b8 00 00 00 00       	mov    $0x0,%eax
  401fcb:	e8 91 fb ff ff       	callq  401b61 <check_fail>
  401fd0:	ba 05 00 00 00       	mov    $0x5,%edx
  401fd5:	be 98 35 40 00       	mov    $0x403598,%esi
  401fda:	bf 01 00 00 00       	mov    $0x1,%edi
  401fdf:	b8 00 00 00 00       	mov    $0x0,%eax
  401fe4:	e8 37 ee ff ff       	callq  400e20 <__printf_chk@plt>
  401fe9:	be 00 00 00 00       	mov    $0x0,%esi
  401fee:	bf 00 00 00 00       	mov    $0x0,%edi
  401ff3:	e8 f0 fb ff ff       	callq  401be8 <notify_server>
  401ff8:	bf 01 00 00 00       	mov    $0x1,%edi
  401ffd:	e8 6e ee ff ff       	callq  400e70 <exit@plt>

0000000000402002 <launch>:
  402002:	55                   	push   %rbp
  402003:	48 89 e5             	mov    %rsp,%rbp
  402006:	48 83 ec 10          	sub    $0x10,%rsp
  40200a:	48 89 fa             	mov    %rdi,%rdx
  40200d:	64 48 8b 04 25 28 00 	mov    %fs:0x28,%rax
  402014:	00 00 
  402016:	48 89 45 f8          	mov    %rax,-0x8(%rbp)
  40201a:	31 c0                	xor    %eax,%eax
  40201c:	48 8d 47 1e          	lea    0x1e(%rdi),%rax
  402020:	48 83 e0 f0          	and    $0xfffffffffffffff0,%rax
  402024:	48 29 c4             	sub    %rax,%rsp
  402027:	48 8d 7c 24 0f       	lea    0xf(%rsp),%rdi
  40202c:	48 83 e7 f0          	and    $0xfffffffffffffff0,%rdi
  402030:	be f4 00 00 00       	mov    $0xf4,%esi
  402035:	e8 e6 ec ff ff       	callq  400d20 <memset@plt>
  40203a:	48 8b 05 7f 24 20 00 	mov    0x20247f(%rip),%rax        # 6044c0 <stdin@@GLIBC_2.2.5>
  402041:	48 39 05 c8 24 20 00 	cmp    %rax,0x2024c8(%rip)        # 604510 <infile>
  402048:	75 14                	jne    40205e <launch+0x5c>
  40204a:	be 04 34 40 00       	mov    $0x403404,%esi
  40204f:	bf 01 00 00 00       	mov    $0x1,%edi
  402054:	b8 00 00 00 00       	mov    $0x0,%eax
  402059:	e8 c2 ed ff ff       	callq  400e20 <__printf_chk@plt>
  40205e:	c7 05 b4 24 20 00 00 	movl   $0x0,0x2024b4(%rip)        # 60451c <vlevel>
  402065:	00 00 00 
  402068:	b8 00 00 00 00       	mov    $0x0,%eax
  40206d:	e8 5b fa ff ff       	callq  401acd <test>
  402072:	83 3d af 24 20 00 00 	cmpl   $0x0,0x2024af(%rip)        # 604528 <is_checker>
  402079:	74 14                	je     40208f <launch+0x8d>
  40207b:	bf 11 34 40 00       	mov    $0x403411,%edi
  402080:	e8 5b ec ff ff       	callq  400ce0 <puts@plt>
  402085:	b8 00 00 00 00       	mov    $0x0,%eax
  40208a:	e8 d2 fa ff ff       	callq  401b61 <check_fail>
  40208f:	bf 1c 34 40 00       	mov    $0x40341c,%edi
  402094:	e8 47 ec ff ff       	callq  400ce0 <puts@plt>
  402099:	48 8b 45 f8          	mov    -0x8(%rbp),%rax
  40209d:	64 48 33 04 25 28 00 	xor    %fs:0x28,%rax
  4020a4:	00 00 
  4020a6:	74 05                	je     4020ad <launch+0xab>
  4020a8:	e8 53 ec ff ff       	callq  400d00 <__stack_chk_fail@plt>
  4020ad:	c9                   	leaveq 
  4020ae:	c3                   	retq   

00000000004020af <stable_launch>:
  4020af:	53                   	push   %rbx
  4020b0:	48 89 3d 51 24 20 00 	mov    %rdi,0x202451(%rip)        # 604508 <global_offset>
  4020b7:	41 b9 00 00 00 00    	mov    $0x0,%r9d
  4020bd:	41 b8 00 00 00 00    	mov    $0x0,%r8d
  4020c3:	b9 32 01 00 00       	mov    $0x132,%ecx
  4020c8:	ba 07 00 00 00       	mov    $0x7,%edx
  4020cd:	be 00 00 10 00       	mov    $0x100000,%esi
  4020d2:	bf 00 60 58 55       	mov    $0x55586000,%edi
  4020d7:	e8 34 ec ff ff       	callq  400d10 <mmap@plt>
  4020dc:	48 89 c3             	mov    %rax,%rbx
  4020df:	48 3d 00 60 58 55    	cmp    $0x55586000,%rax
  4020e5:	74 37                	je     40211e <stable_launch+0x6f>
  4020e7:	be 00 00 10 00       	mov    $0x100000,%esi
  4020ec:	48 89 c7             	mov    %rax,%rdi
  4020ef:	e8 1c ed ff ff       	callq  400e10 <munmap@plt>
  4020f4:	b9 00 60 58 55       	mov    $0x55586000,%ecx
  4020f9:	ba d0 35 40 00       	mov    $0x4035d0,%edx
  4020fe:	be 01 00 00 00       	mov    $0x1,%esi
  402103:	48 8b 3d de 23 20 00 	mov    0x2023de(%rip),%rdi        # 6044e8 <stderr@@GLIBC_2.2.5>
  40210a:	b8 00 00 00 00       	mov    $0x0,%eax
  40210f:	e8 7c ed ff ff       	callq  400e90 <__fprintf_chk@plt>
  402114:	bf 01 00 00 00       	mov    $0x1,%edi
  402119:	e8 52 ed ff ff       	callq  400e70 <exit@plt>
  40211e:	48 8d 90 f8 ff 0f 00 	lea    0xffff8(%rax),%rdx
  402125:	48 89 15 24 30 20 00 	mov    %rdx,0x203024(%rip)        # 605150 <stack_top>
  40212c:	48 89 e0             	mov    %rsp,%rax
  40212f:	48 89 d4             	mov    %rdx,%rsp
  402132:	48 89 c2             	mov    %rax,%rdx
  402135:	48 89 15 c4 23 20 00 	mov    %rdx,0x2023c4(%rip)        # 604500 <global_save_stack>
  40213c:	48 8b 3d c5 23 20 00 	mov    0x2023c5(%rip),%rdi        # 604508 <global_offset>
  402143:	e8 ba fe ff ff       	callq  402002 <launch>
  402148:	48 8b 05 b1 23 20 00 	mov    0x2023b1(%rip),%rax        # 604500 <global_save_stack>
  40214f:	48 89 c4             	mov    %rax,%rsp
  402152:	be 00 00 10 00       	mov    $0x100000,%esi
  402157:	48 89 df             	mov    %rbx,%rdi
  40215a:	e8 b1 ec ff ff       	callq  400e10 <munmap@plt>
  40215f:	5b                   	pop    %rbx
  402160:	c3                   	retq   

0000000000402161 <rio_readinitb>:
  402161:	89 37                	mov    %esi,(%rdi)
  402163:	c7 47 04 00 00 00 00 	movl   $0x0,0x4(%rdi)
  40216a:	48 8d 47 10          	lea    0x10(%rdi),%rax
  40216e:	48 89 47 08          	mov    %rax,0x8(%rdi)
  402172:	c3                   	retq   

0000000000402173 <sigalrm_handler>:
  402173:	48 83 ec 08          	sub    $0x8,%rsp
  402177:	b9 00 00 00 00       	mov    $0x0,%ecx
  40217c:	ba 10 36 40 00       	mov    $0x403610,%edx
  402181:	be 01 00 00 00       	mov    $0x1,%esi
  402186:	48 8b 3d 5b 23 20 00 	mov    0x20235b(%rip),%rdi        # 6044e8 <stderr@@GLIBC_2.2.5>
  40218d:	b8 00 00 00 00       	mov    $0x0,%eax
  402192:	e8 f9 ec ff ff       	callq  400e90 <__fprintf_chk@plt>
  402197:	bf 01 00 00 00       	mov    $0x1,%edi
  40219c:	e8 cf ec ff ff       	callq  400e70 <exit@plt>

00000000004021a1 <rio_writen>:
  4021a1:	41 55                	push   %r13
  4021a3:	41 54                	push   %r12
  4021a5:	55                   	push   %rbp
  4021a6:	53                   	push   %rbx
  4021a7:	48 83 ec 08          	sub    $0x8,%rsp
  4021ab:	41 89 fc             	mov    %edi,%r12d
  4021ae:	48 89 f5             	mov    %rsi,%rbp
  4021b1:	49 89 d5             	mov    %rdx,%r13
  4021b4:	48 89 d3             	mov    %rdx,%rbx
  4021b7:	eb 28                	jmp    4021e1 <rio_writen+0x40>
  4021b9:	48 89 da             	mov    %rbx,%rdx
  4021bc:	48 89 ee             	mov    %rbp,%rsi
  4021bf:	44 89 e7             	mov    %r12d,%edi
  4021c2:	e8 29 eb ff ff       	callq  400cf0 <write@plt>
  4021c7:	48 85 c0             	test   %rax,%rax
  4021ca:	7f 0f                	jg     4021db <rio_writen+0x3a>
  4021cc:	e8 cf ea ff ff       	callq  400ca0 <__errno_location@plt>
  4021d1:	83 38 04             	cmpl   $0x4,(%rax)
  4021d4:	75 15                	jne    4021eb <rio_writen+0x4a>
  4021d6:	b8 00 00 00 00       	mov    $0x0,%eax
  4021db:	48 29 c3             	sub    %rax,%rbx
  4021de:	48 01 c5             	add    %rax,%rbp
  4021e1:	48 85 db             	test   %rbx,%rbx
  4021e4:	75 d3                	jne    4021b9 <rio_writen+0x18>
  4021e6:	4c 89 e8             	mov    %r13,%rax
  4021e9:	eb 07                	jmp    4021f2 <rio_writen+0x51>
  4021eb:	48 c7 c0 ff ff ff ff 	mov    $0xffffffffffffffff,%rax
  4021f2:	48 83 c4 08          	add    $0x8,%rsp
  4021f6:	5b                   	pop    %rbx
  4021f7:	5d                   	pop    %rbp
  4021f8:	41 5c                	pop    %r12
  4021fa:	41 5d                	pop    %r13
  4021fc:	c3                   	retq   

00000000004021fd <rio_read>:
  4021fd:	41 55                	push   %r13
  4021ff:	41 54                	push   %r12
  402201:	55                   	push   %rbp
  402202:	53                   	push   %rbx
  402203:	48 83 ec 08          	sub    $0x8,%rsp
  402207:	48 89 fb             	mov    %rdi,%rbx
  40220a:	49 89 f5             	mov    %rsi,%r13
  40220d:	49 89 d4             	mov    %rdx,%r12
  402210:	eb 2e                	jmp    402240 <rio_read+0x43>
  402212:	48 8d 6b 10          	lea    0x10(%rbx),%rbp
  402216:	8b 3b                	mov    (%rbx),%edi
  402218:	ba 00 20 00 00       	mov    $0x2000,%edx
  40221d:	48 89 ee             	mov    %rbp,%rsi
  402220:	e8 2b eb ff ff       	callq  400d50 <read@plt>
  402225:	89 43 04             	mov    %eax,0x4(%rbx)
  402228:	85 c0                	test   %eax,%eax
  40222a:	79 0c                	jns    402238 <rio_read+0x3b>
  40222c:	e8 6f ea ff ff       	callq  400ca0 <__errno_location@plt>
  402231:	83 38 04             	cmpl   $0x4,(%rax)
  402234:	74 0a                	je     402240 <rio_read+0x43>
  402236:	eb 37                	jmp    40226f <rio_read+0x72>
  402238:	85 c0                	test   %eax,%eax
  40223a:	74 3c                	je     402278 <rio_read+0x7b>
  40223c:	48 89 6b 08          	mov    %rbp,0x8(%rbx)
  402240:	8b 6b 04             	mov    0x4(%rbx),%ebp
  402243:	85 ed                	test   %ebp,%ebp
  402245:	7e cb                	jle    402212 <rio_read+0x15>
  402247:	89 e8                	mov    %ebp,%eax
  402249:	49 39 c4             	cmp    %rax,%r12
  40224c:	77 03                	ja     402251 <rio_read+0x54>
  40224e:	44 89 e5             	mov    %r12d,%ebp
  402251:	4c 63 e5             	movslq %ebp,%r12
  402254:	48 8b 73 08          	mov    0x8(%rbx),%rsi
  402258:	4c 89 e2             	mov    %r12,%rdx
  40225b:	4c 89 ef             	mov    %r13,%rdi
  40225e:	e8 5d eb ff ff       	callq  400dc0 <memcpy@plt>
  402263:	4c 01 63 08          	add    %r12,0x8(%rbx)
  402267:	29 6b 04             	sub    %ebp,0x4(%rbx)
  40226a:	4c 89 e0             	mov    %r12,%rax
  40226d:	eb 0e                	jmp    40227d <rio_read+0x80>
  40226f:	48 c7 c0 ff ff ff ff 	mov    $0xffffffffffffffff,%rax
  402276:	eb 05                	jmp    40227d <rio_read+0x80>
  402278:	b8 00 00 00 00       	mov    $0x0,%eax
  40227d:	48 83 c4 08          	add    $0x8,%rsp
  402281:	5b                   	pop    %rbx
  402282:	5d                   	pop    %rbp
  402283:	41 5c                	pop    %r12
  402285:	41 5d                	pop    %r13
  402287:	c3                   	retq   

0000000000402288 <rio_readlineb>:
  402288:	41 55                	push   %r13
  40228a:	41 54                	push   %r12
  40228c:	55                   	push   %rbp
  40228d:	53                   	push   %rbx
  40228e:	48 83 ec 18          	sub    $0x18,%rsp
  402292:	49 89 fd             	mov    %rdi,%r13
  402295:	48 89 f5             	mov    %rsi,%rbp
  402298:	49 89 d4             	mov    %rdx,%r12
  40229b:	bb 01 00 00 00       	mov    $0x1,%ebx
  4022a0:	eb 3f                	jmp    4022e1 <rio_readlineb+0x59>
  4022a2:	ba 01 00 00 00       	mov    $0x1,%edx
  4022a7:	48 8d 74 24 0f       	lea    0xf(%rsp),%rsi
  4022ac:	4c 89 ef             	mov    %r13,%rdi
  4022af:	e8 49 ff ff ff       	callq  4021fd <rio_read>
  4022b4:	83 f8 01             	cmp    $0x1,%eax
  4022b7:	75 15                	jne    4022ce <rio_readlineb+0x46>
  4022b9:	48 8d 45 01          	lea    0x1(%rbp),%rax
  4022bd:	0f b6 54 24 0f       	movzbl 0xf(%rsp),%edx
  4022c2:	88 55 00             	mov    %dl,0x0(%rbp)
  4022c5:	80 7c 24 0f 0a       	cmpb   $0xa,0xf(%rsp)
  4022ca:	75 0e                	jne    4022da <rio_readlineb+0x52>
  4022cc:	eb 1a                	jmp    4022e8 <rio_readlineb+0x60>
  4022ce:	85 c0                	test   %eax,%eax
  4022d0:	75 22                	jne    4022f4 <rio_readlineb+0x6c>
  4022d2:	48 83 fb 01          	cmp    $0x1,%rbx
  4022d6:	75 13                	jne    4022eb <rio_readlineb+0x63>
  4022d8:	eb 23                	jmp    4022fd <rio_readlineb+0x75>
  4022da:	48 83 c3 01          	add    $0x1,%rbx
  4022de:	48 89 c5             	mov    %rax,%rbp
  4022e1:	4c 39 e3             	cmp    %r12,%rbx
  4022e4:	72 bc                	jb     4022a2 <rio_readlineb+0x1a>
  4022e6:	eb 03                	jmp    4022eb <rio_readlineb+0x63>
  4022e8:	48 89 c5             	mov    %rax,%rbp
  4022eb:	c6 45 00 00          	movb   $0x0,0x0(%rbp)
  4022ef:	48 89 d8             	mov    %rbx,%rax
  4022f2:	eb 0e                	jmp    402302 <rio_readlineb+0x7a>
  4022f4:	48 c7 c0 ff ff ff ff 	mov    $0xffffffffffffffff,%rax
  4022fb:	eb 05                	jmp    402302 <rio_readlineb+0x7a>
  4022fd:	b8 00 00 00 00       	mov    $0x0,%eax
  402302:	48 83 c4 18          	add    $0x18,%rsp
  402306:	5b                   	pop    %rbx
  402307:	5d                   	pop    %rbp
  402308:	41 5c                	pop    %r12
  40230a:	41 5d                	pop    %r13
  40230c:	c3                   	retq   

000000000040230d <urlencode>:
  40230d:	41 54                	push   %r12
  40230f:	55                   	push   %rbp
  402310:	53                   	push   %rbx
  402311:	48 83 ec 10          	sub    $0x10,%rsp
  402315:	48 89 fb             	mov    %rdi,%rbx
  402318:	48 89 f5             	mov    %rsi,%rbp
  40231b:	64 48 8b 04 25 28 00 	mov    %fs:0x28,%rax
  402322:	00 00 
  402324:	48 89 44 24 08       	mov    %rax,0x8(%rsp)
  402329:	31 c0                	xor    %eax,%eax
  40232b:	48 c7 c1 ff ff ff ff 	mov    $0xffffffffffffffff,%rcx
  402332:	f2 ae                	repnz scas %es:(%rdi),%al
  402334:	48 f7 d1             	not    %rcx
  402337:	8d 41 ff             	lea    -0x1(%rcx),%eax
  40233a:	e9 aa 00 00 00       	jmpq   4023e9 <urlencode+0xdc>
  40233f:	44 0f b6 03          	movzbl (%rbx),%r8d
  402343:	41 80 f8 2a          	cmp    $0x2a,%r8b
  402347:	0f 94 c2             	sete   %dl
  40234a:	41 80 f8 2d          	cmp    $0x2d,%r8b
  40234e:	0f 94 c0             	sete   %al
  402351:	08 c2                	or     %al,%dl
  402353:	75 24                	jne    402379 <urlencode+0x6c>
  402355:	41 80 f8 2e          	cmp    $0x2e,%r8b
  402359:	74 1e                	je     402379 <urlencode+0x6c>
  40235b:	41 80 f8 5f          	cmp    $0x5f,%r8b
  40235f:	74 18                	je     402379 <urlencode+0x6c>
  402361:	41 8d 40 d0          	lea    -0x30(%r8),%eax
  402365:	3c 09                	cmp    $0x9,%al
  402367:	76 10                	jbe    402379 <urlencode+0x6c>
  402369:	41 8d 40 bf          	lea    -0x41(%r8),%eax
  40236d:	3c 19                	cmp    $0x19,%al
  40236f:	76 08                	jbe    402379 <urlencode+0x6c>
  402371:	41 8d 40 9f          	lea    -0x61(%r8),%eax
  402375:	3c 19                	cmp    $0x19,%al
  402377:	77 0a                	ja     402383 <urlencode+0x76>
  402379:	44 88 45 00          	mov    %r8b,0x0(%rbp)
  40237d:	48 8d 6d 01          	lea    0x1(%rbp),%rbp
  402381:	eb 5f                	jmp    4023e2 <urlencode+0xd5>
  402383:	41 80 f8 20          	cmp    $0x20,%r8b
  402387:	75 0a                	jne    402393 <urlencode+0x86>
  402389:	c6 45 00 2b          	movb   $0x2b,0x0(%rbp)
  40238d:	48 8d 6d 01          	lea    0x1(%rbp),%rbp
  402391:	eb 4f                	jmp    4023e2 <urlencode+0xd5>
  402393:	41 8d 40 e0          	lea    -0x20(%r8),%eax
  402397:	3c 5f                	cmp    $0x5f,%al
  402399:	0f 96 c2             	setbe  %dl
  40239c:	41 80 f8 09          	cmp    $0x9,%r8b
  4023a0:	0f 94 c0             	sete   %al
  4023a3:	08 c2                	or     %al,%dl
  4023a5:	74 50                	je     4023f7 <urlencode+0xea>
  4023a7:	45 0f b6 c0          	movzbl %r8b,%r8d
  4023ab:	b9 a8 36 40 00       	mov    $0x4036a8,%ecx
  4023b0:	ba 08 00 00 00       	mov    $0x8,%edx
  4023b5:	be 01 00 00 00       	mov    $0x1,%esi
  4023ba:	48 89 e7             	mov    %rsp,%rdi
  4023bd:	b8 00 00 00 00       	mov    $0x0,%eax
  4023c2:	e8 d9 ea ff ff       	callq  400ea0 <__sprintf_chk@plt>
  4023c7:	0f b6 04 24          	movzbl (%rsp),%eax
  4023cb:	88 45 00             	mov    %al,0x0(%rbp)
  4023ce:	0f b6 44 24 01       	movzbl 0x1(%rsp),%eax
  4023d3:	88 45 01             	mov    %al,0x1(%rbp)
  4023d6:	0f b6 44 24 02       	movzbl 0x2(%rsp),%eax
  4023db:	88 45 02             	mov    %al,0x2(%rbp)
  4023de:	48 8d 6d 03          	lea    0x3(%rbp),%rbp
  4023e2:	48 83 c3 01          	add    $0x1,%rbx
  4023e6:	44 89 e0             	mov    %r12d,%eax
  4023e9:	44 8d 60 ff          	lea    -0x1(%rax),%r12d
  4023ed:	85 c0                	test   %eax,%eax
  4023ef:	0f 85 4a ff ff ff    	jne    40233f <urlencode+0x32>
  4023f5:	eb 05                	jmp    4023fc <urlencode+0xef>
  4023f7:	b8 ff ff ff ff       	mov    $0xffffffff,%eax
  4023fc:	48 8b 74 24 08       	mov    0x8(%rsp),%rsi
  402401:	64 48 33 34 25 28 00 	xor    %fs:0x28,%rsi
  402408:	00 00 
  40240a:	74 05                	je     402411 <urlencode+0x104>
  40240c:	e8 ef e8 ff ff       	callq  400d00 <__stack_chk_fail@plt>
  402411:	48 83 c4 10          	add    $0x10,%rsp
  402415:	5b                   	pop    %rbx
  402416:	5d                   	pop    %rbp
  402417:	41 5c                	pop    %r12
  402419:	c3                   	retq   

000000000040241a <submitr>:
  40241a:	41 57                	push   %r15
  40241c:	41 56                	push   %r14
  40241e:	41 55                	push   %r13
  402420:	41 54                	push   %r12
  402422:	55                   	push   %rbp
  402423:	53                   	push   %rbx
  402424:	48 81 ec 58 a0 00 00 	sub    $0xa058,%rsp
  40242b:	49 89 fc             	mov    %rdi,%r12
  40242e:	89 74 24 04          	mov    %esi,0x4(%rsp)
  402432:	49 89 d7             	mov    %rdx,%r15
  402435:	49 89 ce             	mov    %rcx,%r14
  402438:	4c 89 44 24 08       	mov    %r8,0x8(%rsp)
  40243d:	4d 89 cd             	mov    %r9,%r13
  402440:	48 8b 9c 24 90 a0 00 	mov    0xa090(%rsp),%rbx
  402447:	00 
  402448:	64 48 8b 04 25 28 00 	mov    %fs:0x28,%rax
  40244f:	00 00 
  402451:	48 89 84 24 48 a0 00 	mov    %rax,0xa048(%rsp)
  402458:	00 
  402459:	31 c0                	xor    %eax,%eax
  40245b:	c7 44 24 1c 00 00 00 	movl   $0x0,0x1c(%rsp)
  402462:	00 
  402463:	ba 00 00 00 00       	mov    $0x0,%edx
  402468:	be 01 00 00 00       	mov    $0x1,%esi
  40246d:	bf 02 00 00 00       	mov    $0x2,%edi
  402472:	e8 39 ea ff ff       	callq  400eb0 <socket@plt>
  402477:	85 c0                	test   %eax,%eax
  402479:	79 4e                	jns    4024c9 <submitr+0xaf>
  40247b:	48 b8 45 72 72 6f 72 	movabs $0x43203a726f727245,%rax
  402482:	3a 20 43 
  402485:	48 89 03             	mov    %rax,(%rbx)
  402488:	48 b8 6c 69 65 6e 74 	movabs $0x6e7520746e65696c,%rax
  40248f:	20 75 6e 
  402492:	48 89 43 08          	mov    %rax,0x8(%rbx)
  402496:	48 b8 61 62 6c 65 20 	movabs $0x206f7420656c6261,%rax
  40249d:	74 6f 20 
  4024a0:	48 89 43 10          	mov    %rax,0x10(%rbx)
  4024a4:	48 b8 63 72 65 61 74 	movabs $0x7320657461657263,%rax
  4024ab:	65 20 73 
  4024ae:	48 89 43 18          	mov    %rax,0x18(%rbx)
  4024b2:	c7 43 20 6f 63 6b 65 	movl   $0x656b636f,0x20(%rbx)
  4024b9:	66 c7 43 24 74 00    	movw   $0x74,0x24(%rbx)
  4024bf:	b8 ff ff ff ff       	mov    $0xffffffff,%eax
  4024c4:	e9 88 06 00 00       	jmpq   402b51 <submitr+0x737>
  4024c9:	89 c5                	mov    %eax,%ebp
  4024cb:	4c 89 e7             	mov    %r12,%rdi
  4024ce:	e8 ad e8 ff ff       	callq  400d80 <gethostbyname@plt>
  4024d3:	48 85 c0             	test   %rax,%rax
  4024d6:	75 67                	jne    40253f <submitr+0x125>
  4024d8:	48 b8 45 72 72 6f 72 	movabs $0x44203a726f727245,%rax
  4024df:	3a 20 44 
  4024e2:	48 89 03             	mov    %rax,(%rbx)
  4024e5:	48 b8 4e 53 20 69 73 	movabs $0x6e7520736920534e,%rax
  4024ec:	20 75 6e 
  4024ef:	48 89 43 08          	mov    %rax,0x8(%rbx)
  4024f3:	48 b8 61 62 6c 65 20 	movabs $0x206f7420656c6261,%rax
  4024fa:	74 6f 20 
  4024fd:	48 89 43 10          	mov    %rax,0x10(%rbx)
  402501:	48 b8 72 65 73 6f 6c 	movabs $0x2065766c6f736572,%rax
  402508:	76 65 20 
  40250b:	48 89 43 18          	mov    %rax,0x18(%rbx)
  40250f:	48 b8 73 65 72 76 65 	movabs $0x6120726576726573,%rax
  402516:	72 20 61 
  402519:	48 89 43 20          	mov    %rax,0x20(%rbx)
  40251d:	c7 43 28 64 64 72 65 	movl   $0x65726464,0x28(%rbx)
  402524:	66 c7 43 2c 73 73    	movw   $0x7373,0x2c(%rbx)
  40252a:	c6 43 2e 00          	movb   $0x0,0x2e(%rbx)
  40252e:	89 ef                	mov    %ebp,%edi
  402530:	e8 0b e8 ff ff       	callq  400d40 <close@plt>
  402535:	b8 ff ff ff ff       	mov    $0xffffffff,%eax
  40253a:	e9 12 06 00 00       	jmpq   402b51 <submitr+0x737>
  40253f:	48 c7 44 24 20 00 00 	movq   $0x0,0x20(%rsp)
  402546:	00 00 
  402548:	48 c7 44 24 28 00 00 	movq   $0x0,0x28(%rsp)
  40254f:	00 00 
  402551:	66 c7 44 24 20 02 00 	movw   $0x2,0x20(%rsp)
  402558:	48 63 50 14          	movslq 0x14(%rax),%rdx
  40255c:	48 8b 40 18          	mov    0x18(%rax),%rax
  402560:	48 8b 30             	mov    (%rax),%rsi
  402563:	48 8d 7c 24 24       	lea    0x24(%rsp),%rdi
  402568:	b9 0c 00 00 00       	mov    $0xc,%ecx
  40256d:	e8 1e e8 ff ff       	callq  400d90 <__memmove_chk@plt>
  402572:	0f b7 44 24 04       	movzwl 0x4(%rsp),%eax
  402577:	66 c1 c8 08          	ror    $0x8,%ax
  40257b:	66 89 44 24 22       	mov    %ax,0x22(%rsp)
  402580:	ba 10 00 00 00       	mov    $0x10,%edx
  402585:	48 8d 74 24 20       	lea    0x20(%rsp),%rsi
  40258a:	89 ef                	mov    %ebp,%edi
  40258c:	e8 ef e8 ff ff       	callq  400e80 <connect@plt>
  402591:	85 c0                	test   %eax,%eax
  402593:	79 59                	jns    4025ee <submitr+0x1d4>
  402595:	48 b8 45 72 72 6f 72 	movabs $0x55203a726f727245,%rax
  40259c:	3a 20 55 
  40259f:	48 89 03             	mov    %rax,(%rbx)
  4025a2:	48 b8 6e 61 62 6c 65 	movabs $0x6f7420656c62616e,%rax
  4025a9:	20 74 6f 
  4025ac:	48 89 43 08          	mov    %rax,0x8(%rbx)
  4025b0:	48 b8 20 63 6f 6e 6e 	movabs $0x7463656e6e6f6320,%rax
  4025b7:	65 63 74 
  4025ba:	48 89 43 10          	mov    %rax,0x10(%rbx)
  4025be:	48 b8 20 74 6f 20 74 	movabs $0x20656874206f7420,%rax
  4025c5:	68 65 20 
  4025c8:	48 89 43 18          	mov    %rax,0x18(%rbx)
  4025cc:	c7 43 20 73 65 72 76 	movl   $0x76726573,0x20(%rbx)
  4025d3:	66 c7 43 24 65 72    	movw   $0x7265,0x24(%rbx)
  4025d9:	c6 43 26 00          	movb   $0x0,0x26(%rbx)
  4025dd:	89 ef                	mov    %ebp,%edi
  4025df:	e8 5c e7 ff ff       	callq  400d40 <close@plt>
  4025e4:	b8 ff ff ff ff       	mov    $0xffffffff,%eax
  4025e9:	e9 63 05 00 00       	jmpq   402b51 <submitr+0x737>
  4025ee:	48 c7 c6 ff ff ff ff 	mov    $0xffffffffffffffff,%rsi
  4025f5:	b8 00 00 00 00       	mov    $0x0,%eax
  4025fa:	48 89 f1             	mov    %rsi,%rcx
  4025fd:	4c 89 ef             	mov    %r13,%rdi
  402600:	f2 ae                	repnz scas %es:(%rdi),%al
  402602:	48 f7 d1             	not    %rcx
  402605:	48 89 ca             	mov    %rcx,%rdx
  402608:	48 89 f1             	mov    %rsi,%rcx
  40260b:	4c 89 ff             	mov    %r15,%rdi
  40260e:	f2 ae                	repnz scas %es:(%rdi),%al
  402610:	48 f7 d1             	not    %rcx
  402613:	49 89 c8             	mov    %rcx,%r8
  402616:	48 89 f1             	mov    %rsi,%rcx
  402619:	4c 89 f7             	mov    %r14,%rdi
  40261c:	f2 ae                	repnz scas %es:(%rdi),%al
  40261e:	48 f7 d1             	not    %rcx
  402621:	4d 8d 44 08 fe       	lea    -0x2(%r8,%rcx,1),%r8
  402626:	48 89 f1             	mov    %rsi,%rcx
  402629:	48 8b 7c 24 08       	mov    0x8(%rsp),%rdi
  40262e:	f2 ae                	repnz scas %es:(%rdi),%al
  402630:	48 89 c8             	mov    %rcx,%rax
  402633:	48 f7 d0             	not    %rax
  402636:	49 8d 4c 00 ff       	lea    -0x1(%r8,%rax,1),%rcx
  40263b:	48 8d 44 52 fd       	lea    -0x3(%rdx,%rdx,2),%rax
  402640:	48 8d 84 01 80 00 00 	lea    0x80(%rcx,%rax,1),%rax
  402647:	00 
  402648:	48 3d 00 20 00 00    	cmp    $0x2000,%rax
  40264e:	76 72                	jbe    4026c2 <submitr+0x2a8>
  402650:	48 b8 45 72 72 6f 72 	movabs $0x52203a726f727245,%rax
  402657:	3a 20 52 
  40265a:	48 89 03             	mov    %rax,(%rbx)
  40265d:	48 b8 65 73 75 6c 74 	movabs $0x747320746c757365,%rax
  402664:	20 73 74 
  402667:	48 89 43 08          	mov    %rax,0x8(%rbx)
  40266b:	48 b8 72 69 6e 67 20 	movabs $0x6f6f7420676e6972,%rax
  402672:	74 6f 6f 
  402675:	48 89 43 10          	mov    %rax,0x10(%rbx)
  402679:	48 b8 20 6c 61 72 67 	movabs $0x202e656772616c20,%rax
  402680:	65 2e 20 
  402683:	48 89 43 18          	mov    %rax,0x18(%rbx)
  402687:	48 b8 49 6e 63 72 65 	movabs $0x6573616572636e49,%rax
  40268e:	61 73 65 
  402691:	48 89 43 20          	mov    %rax,0x20(%rbx)
  402695:	48 b8 20 53 55 42 4d 	movabs $0x5254494d42555320,%rax
  40269c:	49 54 52 
  40269f:	48 89 43 28          	mov    %rax,0x28(%rbx)
  4026a3:	48 b8 5f 4d 41 58 42 	movabs $0x46554258414d5f,%rax
  4026aa:	55 46 00 
  4026ad:	48 89 43 30          	mov    %rax,0x30(%rbx)
  4026b1:	89 ef                	mov    %ebp,%edi
  4026b3:	e8 88 e6 ff ff       	callq  400d40 <close@plt>
  4026b8:	b8 ff ff ff ff       	mov    $0xffffffff,%eax
  4026bd:	e9 8f 04 00 00       	jmpq   402b51 <submitr+0x737>
  4026c2:	48 8d b4 24 30 20 00 	lea    0x2030(%rsp),%rsi
  4026c9:	00 
  4026ca:	b9 00 04 00 00       	mov    $0x400,%ecx
  4026cf:	b8 00 00 00 00       	mov    $0x0,%eax
  4026d4:	48 89 f7             	mov    %rsi,%rdi
  4026d7:	f3 48 ab             	rep stos %rax,%es:(%rdi)
  4026da:	4c 89 ef             	mov    %r13,%rdi
  4026dd:	e8 2b fc ff ff       	callq  40230d <urlencode>
  4026e2:	85 c0                	test   %eax,%eax
  4026e4:	0f 89 8a 00 00 00    	jns    402774 <submitr+0x35a>
  4026ea:	48 b8 45 72 72 6f 72 	movabs $0x52203a726f727245,%rax
  4026f1:	3a 20 52 
  4026f4:	48 89 03             	mov    %rax,(%rbx)
  4026f7:	48 b8 65 73 75 6c 74 	movabs $0x747320746c757365,%rax
  4026fe:	20 73 74 
  402701:	48 89 43 08          	mov    %rax,0x8(%rbx)
  402705:	48 b8 72 69 6e 67 20 	movabs $0x6e6f6320676e6972,%rax
  40270c:	63 6f 6e 
  40270f:	48 89 43 10          	mov    %rax,0x10(%rbx)
  402713:	48 b8 74 61 69 6e 73 	movabs $0x6e6120736e696174,%rax
  40271a:	20 61 6e 
  40271d:	48 89 43 18          	mov    %rax,0x18(%rbx)
  402721:	48 b8 20 69 6c 6c 65 	movabs $0x6c6167656c6c6920,%rax
  402728:	67 61 6c 
  40272b:	48 89 43 20          	mov    %rax,0x20(%rbx)
  40272f:	48 b8 20 6f 72 20 75 	movabs $0x72706e7520726f20,%rax
  402736:	6e 70 72 
  402739:	48 89 43 28          	mov    %rax,0x28(%rbx)
  40273d:	48 b8 69 6e 74 61 62 	movabs $0x20656c6261746e69,%rax
  402744:	6c 65 20 
  402747:	48 89 43 30          	mov    %rax,0x30(%rbx)
  40274b:	48 b8 63 68 61 72 61 	movabs $0x6574636172616863,%rax
  402752:	63 74 65 
  402755:	48 89 43 38          	mov    %rax,0x38(%rbx)
  402759:	66 c7 43 40 72 2e    	movw   $0x2e72,0x40(%rbx)
  40275f:	c6 43 42 00          	movb   $0x0,0x42(%rbx)
  402763:	89 ef                	mov    %ebp,%edi
  402765:	e8 d6 e5 ff ff       	callq  400d40 <close@plt>
  40276a:	b8 ff ff ff ff       	mov    $0xffffffff,%eax
  40276f:	e9 dd 03 00 00       	jmpq   402b51 <submitr+0x737>
  402774:	4c 8d 6c 24 30       	lea    0x30(%rsp),%r13
  402779:	41 54                	push   %r12
  40277b:	48 8d 84 24 38 20 00 	lea    0x2038(%rsp),%rax
  402782:	00 
  402783:	50                   	push   %rax
  402784:	4d 89 f9             	mov    %r15,%r9
  402787:	4d 89 f0             	mov    %r14,%r8
  40278a:	b9 38 36 40 00       	mov    $0x403638,%ecx
  40278f:	ba 00 20 00 00       	mov    $0x2000,%edx
  402794:	be 01 00 00 00       	mov    $0x1,%esi
  402799:	4c 89 ef             	mov    %r13,%rdi
  40279c:	b8 00 00 00 00       	mov    $0x0,%eax
  4027a1:	e8 fa e6 ff ff       	callq  400ea0 <__sprintf_chk@plt>
  4027a6:	b8 00 00 00 00       	mov    $0x0,%eax
  4027ab:	48 c7 c1 ff ff ff ff 	mov    $0xffffffffffffffff,%rcx
  4027b2:	4c 89 ef             	mov    %r13,%rdi
  4027b5:	f2 ae                	repnz scas %es:(%rdi),%al
  4027b7:	48 f7 d1             	not    %rcx
  4027ba:	48 8d 51 ff          	lea    -0x1(%rcx),%rdx
  4027be:	4c 89 ee             	mov    %r13,%rsi
  4027c1:	89 ef                	mov    %ebp,%edi
  4027c3:	e8 d9 f9 ff ff       	callq  4021a1 <rio_writen>
  4027c8:	48 83 c4 10          	add    $0x10,%rsp
  4027cc:	48 85 c0             	test   %rax,%rax
  4027cf:	79 6e                	jns    40283f <submitr+0x425>
  4027d1:	48 b8 45 72 72 6f 72 	movabs $0x43203a726f727245,%rax
  4027d8:	3a 20 43 
  4027db:	48 89 03             	mov    %rax,(%rbx)
  4027de:	48 b8 6c 69 65 6e 74 	movabs $0x6e7520746e65696c,%rax
  4027e5:	20 75 6e 
  4027e8:	48 89 43 08          	mov    %rax,0x8(%rbx)
  4027ec:	48 b8 61 62 6c 65 20 	movabs $0x206f7420656c6261,%rax
  4027f3:	74 6f 20 
  4027f6:	48 89 43 10          	mov    %rax,0x10(%rbx)
  4027fa:	48 b8 77 72 69 74 65 	movabs $0x6f74206574697277,%rax
  402801:	20 74 6f 
  402804:	48 89 43 18          	mov    %rax,0x18(%rbx)
  402808:	48 b8 20 74 68 65 20 	movabs $0x7365722065687420,%rax
  40280f:	72 65 73 
  402812:	48 89 43 20          	mov    %rax,0x20(%rbx)
  402816:	48 b8 75 6c 74 20 73 	movabs $0x7672657320746c75,%rax
  40281d:	65 72 76 
  402820:	48 89 43 28          	mov    %rax,0x28(%rbx)
  402824:	66 c7 43 30 65 72    	movw   $0x7265,0x30(%rbx)
  40282a:	c6 43 32 00          	movb   $0x0,0x32(%rbx)
  40282e:	89 ef                	mov    %ebp,%edi
  402830:	e8 0b e5 ff ff       	callq  400d40 <close@plt>
  402835:	b8 ff ff ff ff       	mov    $0xffffffff,%eax
  40283a:	e9 12 03 00 00       	jmpq   402b51 <submitr+0x737>
  40283f:	89 ee                	mov    %ebp,%esi
  402841:	48 8d bc 24 30 80 00 	lea    0x8030(%rsp),%rdi
  402848:	00 
  402849:	e8 13 f9 ff ff       	callq  402161 <rio_readinitb>
  40284e:	ba 00 20 00 00       	mov    $0x2000,%edx
  402853:	48 8d 74 24 30       	lea    0x30(%rsp),%rsi
  402858:	48 8d bc 24 30 80 00 	lea    0x8030(%rsp),%rdi
  40285f:	00 
  402860:	e8 23 fa ff ff       	callq  402288 <rio_readlineb>
  402865:	48 85 c0             	test   %rax,%rax
  402868:	7f 7d                	jg     4028e7 <submitr+0x4cd>
  40286a:	48 b8 45 72 72 6f 72 	movabs $0x43203a726f727245,%rax
  402871:	3a 20 43 
  402874:	48 89 03             	mov    %rax,(%rbx)
  402877:	48 b8 6c 69 65 6e 74 	movabs $0x6e7520746e65696c,%rax
  40287e:	20 75 6e 
  402881:	48 89 43 08          	mov    %rax,0x8(%rbx)
  402885:	48 b8 61 62 6c 65 20 	movabs $0x206f7420656c6261,%rax
  40288c:	74 6f 20 
  40288f:	48 89 43 10          	mov    %rax,0x10(%rbx)
  402893:	48 b8 72 65 61 64 20 	movabs $0x7269662064616572,%rax
  40289a:	66 69 72 
  40289d:	48 89 43 18          	mov    %rax,0x18(%rbx)
  4028a1:	48 b8 73 74 20 68 65 	movabs $0x6564616568207473,%rax
  4028a8:	61 64 65 
  4028ab:	48 89 43 20          	mov    %rax,0x20(%rbx)
  4028af:	48 b8 72 20 66 72 6f 	movabs $0x72206d6f72662072,%rax
  4028b6:	6d 20 72 
  4028b9:	48 89 43 28          	mov    %rax,0x28(%rbx)
  4028bd:	48 b8 65 73 75 6c 74 	movabs $0x657320746c757365,%rax
  4028c4:	20 73 65 
  4028c7:	48 89 43 30          	mov    %rax,0x30(%rbx)
  4028cb:	c7 43 38 72 76 65 72 	movl   $0x72657672,0x38(%rbx)
  4028d2:	c6 43 3c 00          	movb   $0x0,0x3c(%rbx)
  4028d6:	89 ef                	mov    %ebp,%edi
  4028d8:	e8 63 e4 ff ff       	callq  400d40 <close@plt>
  4028dd:	b8 ff ff ff ff       	mov    $0xffffffff,%eax
  4028e2:	e9 6a 02 00 00       	jmpq   402b51 <submitr+0x737>
  4028e7:	4c 8d 84 24 30 60 00 	lea    0x6030(%rsp),%r8
  4028ee:	00 
  4028ef:	48 8d 4c 24 1c       	lea    0x1c(%rsp),%rcx
  4028f4:	48 8d 94 24 30 40 00 	lea    0x4030(%rsp),%rdx
  4028fb:	00 
  4028fc:	be af 36 40 00       	mov    $0x4036af,%esi
  402901:	48 8d 7c 24 30       	lea    0x30(%rsp),%rdi
  402906:	b8 00 00 00 00       	mov    $0x0,%eax
  40290b:	e8 f0 e4 ff ff       	callq  400e00 <__isoc99_sscanf@plt>
  402910:	e9 95 00 00 00       	jmpq   4029aa <submitr+0x590>
  402915:	ba 00 20 00 00       	mov    $0x2000,%edx
  40291a:	48 8d 74 24 30       	lea    0x30(%rsp),%rsi
  40291f:	48 8d bc 24 30 80 00 	lea    0x8030(%rsp),%rdi
  402926:	00 
  402927:	e8 5c f9 ff ff       	callq  402288 <rio_readlineb>
  40292c:	48 85 c0             	test   %rax,%rax
  40292f:	7f 79                	jg     4029aa <submitr+0x590>
  402931:	48 b8 45 72 72 6f 72 	movabs $0x43203a726f727245,%rax
  402938:	3a 20 43 
  40293b:	48 89 03             	mov    %rax,(%rbx)
  40293e:	48 b8 6c 69 65 6e 74 	movabs $0x6e7520746e65696c,%rax
  402945:	20 75 6e 
  402948:	48 89 43 08          	mov    %rax,0x8(%rbx)
  40294c:	48 b8 61 62 6c 65 20 	movabs $0x206f7420656c6261,%rax
  402953:	74 6f 20 
  402956:	48 89 43 10          	mov    %rax,0x10(%rbx)
  40295a:	48 b8 72 65 61 64 20 	movabs $0x6165682064616572,%rax
  402961:	68 65 61 
  402964:	48 89 43 18          	mov    %rax,0x18(%rbx)
  402968:	48 b8 64 65 72 73 20 	movabs $0x6f72662073726564,%rax
  40296f:	66 72 6f 
  402972:	48 89 43 20          	mov    %rax,0x20(%rbx)
  402976:	48 b8 6d 20 74 68 65 	movabs $0x657220656874206d,%rax
  40297d:	20 72 65 
  402980:	48 89 43 28          	mov    %rax,0x28(%rbx)
  402984:	48 b8 73 75 6c 74 20 	movabs $0x72657320746c7573,%rax
  40298b:	73 65 72 
  40298e:	48 89 43 30          	mov    %rax,0x30(%rbx)
  402992:	c7 43 38 76 65 72 00 	movl   $0x726576,0x38(%rbx)
  402999:	89 ef                	mov    %ebp,%edi
  40299b:	e8 a0 e3 ff ff       	callq  400d40 <close@plt>
  4029a0:	b8 ff ff ff ff       	mov    $0xffffffff,%eax
  4029a5:	e9 a7 01 00 00       	jmpq   402b51 <submitr+0x737>
  4029aa:	0f b6 54 24 30       	movzbl 0x30(%rsp),%edx
  4029af:	b8 0d 00 00 00       	mov    $0xd,%eax
  4029b4:	29 d0                	sub    %edx,%eax
  4029b6:	75 15                	jne    4029cd <submitr+0x5b3>
  4029b8:	0f b6 54 24 31       	movzbl 0x31(%rsp),%edx
  4029bd:	b8 0a 00 00 00       	mov    $0xa,%eax
  4029c2:	29 d0                	sub    %edx,%eax
  4029c4:	75 07                	jne    4029cd <submitr+0x5b3>
  4029c6:	0f b6 44 24 32       	movzbl 0x32(%rsp),%eax
  4029cb:	f7 d8                	neg    %eax
  4029cd:	85 c0                	test   %eax,%eax
  4029cf:	0f 85 40 ff ff ff    	jne    402915 <submitr+0x4fb>
  4029d5:	ba 00 20 00 00       	mov    $0x2000,%edx
  4029da:	48 8d 74 24 30       	lea    0x30(%rsp),%rsi
  4029df:	48 8d bc 24 30 80 00 	lea    0x8030(%rsp),%rdi
  4029e6:	00 
  4029e7:	e8 9c f8 ff ff       	callq  402288 <rio_readlineb>
  4029ec:	48 85 c0             	test   %rax,%rax
  4029ef:	0f 8f 83 00 00 00    	jg     402a78 <submitr+0x65e>
  4029f5:	48 b8 45 72 72 6f 72 	movabs $0x43203a726f727245,%rax
  4029fc:	3a 20 43 
  4029ff:	48 89 03             	mov    %rax,(%rbx)
  402a02:	48 b8 6c 69 65 6e 74 	movabs $0x6e7520746e65696c,%rax
  402a09:	20 75 6e 
  402a0c:	48 89 43 08          	mov    %rax,0x8(%rbx)
  402a10:	48 b8 61 62 6c 65 20 	movabs $0x206f7420656c6261,%rax
  402a17:	74 6f 20 
  402a1a:	48 89 43 10          	mov    %rax,0x10(%rbx)
  402a1e:	48 b8 72 65 61 64 20 	movabs $0x6174732064616572,%rax
  402a25:	73 74 61 
  402a28:	48 89 43 18          	mov    %rax,0x18(%rbx)
  402a2c:	48 b8 74 75 73 20 6d 	movabs $0x7373656d20737574,%rax
  402a33:	65 73 73 
  402a36:	48 89 43 20          	mov    %rax,0x20(%rbx)
  402a3a:	48 b8 61 67 65 20 66 	movabs $0x6d6f726620656761,%rax
  402a41:	72 6f 6d 
  402a44:	48 89 43 28          	mov    %rax,0x28(%rbx)
  402a48:	48 b8 20 72 65 73 75 	movabs $0x20746c7573657220,%rax
  402a4f:	6c 74 20 
  402a52:	48 89 43 30          	mov    %rax,0x30(%rbx)
  402a56:	c7 43 38 73 65 72 76 	movl   $0x76726573,0x38(%rbx)
  402a5d:	66 c7 43 3c 65 72    	movw   $0x7265,0x3c(%rbx)
  402a63:	c6 43 3e 00          	movb   $0x0,0x3e(%rbx)
  402a67:	89 ef                	mov    %ebp,%edi
  402a69:	e8 d2 e2 ff ff       	callq  400d40 <close@plt>
  402a6e:	b8 ff ff ff ff       	mov    $0xffffffff,%eax
  402a73:	e9 d9 00 00 00       	jmpq   402b51 <submitr+0x737>
  402a78:	44 8b 44 24 1c       	mov    0x1c(%rsp),%r8d
  402a7d:	41 81 f8 c8 00 00 00 	cmp    $0xc8,%r8d
  402a84:	74 37                	je     402abd <submitr+0x6a3>
  402a86:	4c 8d 8c 24 30 60 00 	lea    0x6030(%rsp),%r9
  402a8d:	00 
  402a8e:	b9 78 36 40 00       	mov    $0x403678,%ecx
  402a93:	48 c7 c2 ff ff ff ff 	mov    $0xffffffffffffffff,%rdx
  402a9a:	be 01 00 00 00       	mov    $0x1,%esi
  402a9f:	48 89 df             	mov    %rbx,%rdi
  402aa2:	b8 00 00 00 00       	mov    $0x0,%eax
  402aa7:	e8 f4 e3 ff ff       	callq  400ea0 <__sprintf_chk@plt>
  402aac:	89 ef                	mov    %ebp,%edi
  402aae:	e8 8d e2 ff ff       	callq  400d40 <close@plt>
  402ab3:	b8 ff ff ff ff       	mov    $0xffffffff,%eax
  402ab8:	e9 94 00 00 00       	jmpq   402b51 <submitr+0x737>
  402abd:	48 8d 74 24 30       	lea    0x30(%rsp),%rsi
  402ac2:	48 89 df             	mov    %rbx,%rdi
  402ac5:	e8 06 e2 ff ff       	callq  400cd0 <strcpy@plt>
  402aca:	89 ef                	mov    %ebp,%edi
  402acc:	e8 6f e2 ff ff       	callq  400d40 <close@plt>
  402ad1:	0f b6 03             	movzbl (%rbx),%eax
  402ad4:	ba 4f 00 00 00       	mov    $0x4f,%edx
  402ad9:	29 c2                	sub    %eax,%edx
  402adb:	75 22                	jne    402aff <submitr+0x6e5>
  402add:	0f b6 4b 01          	movzbl 0x1(%rbx),%ecx
  402ae1:	b8 4b 00 00 00       	mov    $0x4b,%eax
  402ae6:	29 c8                	sub    %ecx,%eax
  402ae8:	75 17                	jne    402b01 <submitr+0x6e7>
  402aea:	0f b6 4b 02          	movzbl 0x2(%rbx),%ecx
  402aee:	b8 0a 00 00 00       	mov    $0xa,%eax
  402af3:	29 c8                	sub    %ecx,%eax
  402af5:	75 0a                	jne    402b01 <submitr+0x6e7>
  402af7:	0f b6 43 03          	movzbl 0x3(%rbx),%eax
  402afb:	f7 d8                	neg    %eax
  402afd:	eb 02                	jmp    402b01 <submitr+0x6e7>
  402aff:	89 d0                	mov    %edx,%eax
  402b01:	85 c0                	test   %eax,%eax
  402b03:	74 40                	je     402b45 <submitr+0x72b>
  402b05:	bf c0 36 40 00       	mov    $0x4036c0,%edi
  402b0a:	b9 05 00 00 00       	mov    $0x5,%ecx
  402b0f:	48 89 de             	mov    %rbx,%rsi
  402b12:	f3 a6                	repz cmpsb %es:(%rdi),%ds:(%rsi)
  402b14:	0f 97 c0             	seta   %al
  402b17:	0f 92 c1             	setb   %cl
  402b1a:	29 c8                	sub    %ecx,%eax
  402b1c:	0f be c0             	movsbl %al,%eax
  402b1f:	85 c0                	test   %eax,%eax
  402b21:	74 2e                	je     402b51 <submitr+0x737>
  402b23:	85 d2                	test   %edx,%edx
  402b25:	75 13                	jne    402b3a <submitr+0x720>
  402b27:	0f b6 43 01          	movzbl 0x1(%rbx),%eax
  402b2b:	ba 4b 00 00 00       	mov    $0x4b,%edx
  402b30:	29 c2                	sub    %eax,%edx
  402b32:	75 06                	jne    402b3a <submitr+0x720>
  402b34:	0f b6 53 02          	movzbl 0x2(%rbx),%edx
  402b38:	f7 da                	neg    %edx
  402b3a:	85 d2                	test   %edx,%edx
  402b3c:	75 0e                	jne    402b4c <submitr+0x732>
  402b3e:	b8 00 00 00 00       	mov    $0x0,%eax
  402b43:	eb 0c                	jmp    402b51 <submitr+0x737>
  402b45:	b8 00 00 00 00       	mov    $0x0,%eax
  402b4a:	eb 05                	jmp    402b51 <submitr+0x737>
  402b4c:	b8 ff ff ff ff       	mov    $0xffffffff,%eax
  402b51:	48 8b 9c 24 48 a0 00 	mov    0xa048(%rsp),%rbx
  402b58:	00 
  402b59:	64 48 33 1c 25 28 00 	xor    %fs:0x28,%rbx
  402b60:	00 00 
  402b62:	74 05                	je     402b69 <submitr+0x74f>
  402b64:	e8 97 e1 ff ff       	callq  400d00 <__stack_chk_fail@plt>
  402b69:	48 81 c4 58 a0 00 00 	add    $0xa058,%rsp
  402b70:	5b                   	pop    %rbx
  402b71:	5d                   	pop    %rbp
  402b72:	41 5c                	pop    %r12
  402b74:	41 5d                	pop    %r13
  402b76:	41 5e                	pop    %r14
  402b78:	41 5f                	pop    %r15
  402b7a:	c3                   	retq   

0000000000402b7b <init_timeout>:
  402b7b:	85 ff                	test   %edi,%edi
  402b7d:	74 23                	je     402ba2 <init_timeout+0x27>
  402b7f:	53                   	push   %rbx
  402b80:	89 fb                	mov    %edi,%ebx
  402b82:	85 ff                	test   %edi,%edi
  402b84:	79 05                	jns    402b8b <init_timeout+0x10>
  402b86:	bb 00 00 00 00       	mov    $0x0,%ebx
  402b8b:	be 73 21 40 00       	mov    $0x402173,%esi
  402b90:	bf 0e 00 00 00       	mov    $0xe,%edi
  402b95:	e8 d6 e1 ff ff       	callq  400d70 <signal@plt>
  402b9a:	89 df                	mov    %ebx,%edi
  402b9c:	e8 8f e1 ff ff       	callq  400d30 <alarm@plt>
  402ba1:	5b                   	pop    %rbx
  402ba2:	f3 c3                	repz retq 

0000000000402ba4 <init_driver>:
  402ba4:	55                   	push   %rbp
  402ba5:	53                   	push   %rbx
  402ba6:	48 83 ec 28          	sub    $0x28,%rsp
  402baa:	48 89 fd             	mov    %rdi,%rbp
  402bad:	64 48 8b 04 25 28 00 	mov    %fs:0x28,%rax
  402bb4:	00 00 
  402bb6:	48 89 44 24 18       	mov    %rax,0x18(%rsp)
  402bbb:	31 c0                	xor    %eax,%eax
  402bbd:	be 01 00 00 00       	mov    $0x1,%esi
  402bc2:	bf 0d 00 00 00       	mov    $0xd,%edi
  402bc7:	e8 a4 e1 ff ff       	callq  400d70 <signal@plt>
  402bcc:	be 01 00 00 00       	mov    $0x1,%esi
  402bd1:	bf 1d 00 00 00       	mov    $0x1d,%edi
  402bd6:	e8 95 e1 ff ff       	callq  400d70 <signal@plt>
  402bdb:	be 01 00 00 00       	mov    $0x1,%esi
  402be0:	bf 1d 00 00 00       	mov    $0x1d,%edi
  402be5:	e8 86 e1 ff ff       	callq  400d70 <signal@plt>
  402bea:	ba 00 00 00 00       	mov    $0x0,%edx
  402bef:	be 01 00 00 00       	mov    $0x1,%esi
  402bf4:	bf 02 00 00 00       	mov    $0x2,%edi
  402bf9:	e8 b2 e2 ff ff       	callq  400eb0 <socket@plt>
  402bfe:	85 c0                	test   %eax,%eax
  402c00:	79 4f                	jns    402c51 <init_driver+0xad>
  402c02:	48 b8 45 72 72 6f 72 	movabs $0x43203a726f727245,%rax
  402c09:	3a 20 43 
  402c0c:	48 89 45 00          	mov    %rax,0x0(%rbp)
  402c10:	48 b8 6c 69 65 6e 74 	movabs $0x6e7520746e65696c,%rax
  402c17:	20 75 6e 
  402c1a:	48 89 45 08          	mov    %rax,0x8(%rbp)
  402c1e:	48 b8 61 62 6c 65 20 	movabs $0x206f7420656c6261,%rax
  402c25:	74 6f 20 
  402c28:	48 89 45 10          	mov    %rax,0x10(%rbp)
  402c2c:	48 b8 63 72 65 61 74 	movabs $0x7320657461657263,%rax
  402c33:	65 20 73 
  402c36:	48 89 45 18          	mov    %rax,0x18(%rbp)
  402c3a:	c7 45 20 6f 63 6b 65 	movl   $0x656b636f,0x20(%rbp)
  402c41:	66 c7 45 24 74 00    	movw   $0x74,0x24(%rbp)
  402c47:	b8 ff ff ff ff       	mov    $0xffffffff,%eax
  402c4c:	e9 2a 01 00 00       	jmpq   402d7b <init_driver+0x1d7>
  402c51:	89 c3                	mov    %eax,%ebx
  402c53:	bf ff 31 40 00       	mov    $0x4031ff,%edi
  402c58:	e8 23 e1 ff ff       	callq  400d80 <gethostbyname@plt>
  402c5d:	48 85 c0             	test   %rax,%rax
  402c60:	75 68                	jne    402cca <init_driver+0x126>
  402c62:	48 b8 45 72 72 6f 72 	movabs $0x44203a726f727245,%rax
  402c69:	3a 20 44 
  402c6c:	48 89 45 00          	mov    %rax,0x0(%rbp)
  402c70:	48 b8 4e 53 20 69 73 	movabs $0x6e7520736920534e,%rax
  402c77:	20 75 6e 
  402c7a:	48 89 45 08          	mov    %rax,0x8(%rbp)
  402c7e:	48 b8 61 62 6c 65 20 	movabs $0x206f7420656c6261,%rax
  402c85:	74 6f 20 
  402c88:	48 89 45 10          	mov    %rax,0x10(%rbp)
  402c8c:	48 b8 72 65 73 6f 6c 	movabs $0x2065766c6f736572,%rax
  402c93:	76 65 20 
  402c96:	48 89 45 18          	mov    %rax,0x18(%rbp)
  402c9a:	48 b8 73 65 72 76 65 	movabs $0x6120726576726573,%rax
  402ca1:	72 20 61 
  402ca4:	48 89 45 20          	mov    %rax,0x20(%rbp)
  402ca8:	c7 45 28 64 64 72 65 	movl   $0x65726464,0x28(%rbp)
  402caf:	66 c7 45 2c 73 73    	movw   $0x7373,0x2c(%rbp)
  402cb5:	c6 45 2e 00          	movb   $0x0,0x2e(%rbp)
  402cb9:	89 df                	mov    %ebx,%edi
  402cbb:	e8 80 e0 ff ff       	callq  400d40 <close@plt>
  402cc0:	b8 ff ff ff ff       	mov    $0xffffffff,%eax
  402cc5:	e9 b1 00 00 00       	jmpq   402d7b <init_driver+0x1d7>
  402cca:	48 c7 04 24 00 00 00 	movq   $0x0,(%rsp)
  402cd1:	00 
  402cd2:	48 c7 44 24 08 00 00 	movq   $0x0,0x8(%rsp)
  402cd9:	00 00 
  402cdb:	66 c7 04 24 02 00    	movw   $0x2,(%rsp)
  402ce1:	48 63 50 14          	movslq 0x14(%rax),%rdx
  402ce5:	48 8b 40 18          	mov    0x18(%rax),%rax
  402ce9:	48 8b 30             	mov    (%rax),%rsi
  402cec:	48 8d 7c 24 04       	lea    0x4(%rsp),%rdi
  402cf1:	b9 0c 00 00 00       	mov    $0xc,%ecx
  402cf6:	e8 95 e0 ff ff       	callq  400d90 <__memmove_chk@plt>
  402cfb:	66 c7 44 24 02 4e f3 	movw   $0xf34e,0x2(%rsp)
  402d02:	ba 10 00 00 00       	mov    $0x10,%edx
  402d07:	48 89 e6             	mov    %rsp,%rsi
  402d0a:	89 df                	mov    %ebx,%edi
  402d0c:	e8 6f e1 ff ff       	callq  400e80 <connect@plt>
  402d11:	85 c0                	test   %eax,%eax
  402d13:	79 50                	jns    402d65 <init_driver+0x1c1>
  402d15:	48 b8 45 72 72 6f 72 	movabs $0x55203a726f727245,%rax
  402d1c:	3a 20 55 
  402d1f:	48 89 45 00          	mov    %rax,0x0(%rbp)
  402d23:	48 b8 6e 61 62 6c 65 	movabs $0x6f7420656c62616e,%rax
  402d2a:	20 74 6f 
  402d2d:	48 89 45 08          	mov    %rax,0x8(%rbp)
  402d31:	48 b8 20 63 6f 6e 6e 	movabs $0x7463656e6e6f6320,%rax
  402d38:	65 63 74 
  402d3b:	48 89 45 10          	mov    %rax,0x10(%rbp)
  402d3f:	48 b8 20 74 6f 20 73 	movabs $0x76726573206f7420,%rax
  402d46:	65 72 76 
  402d49:	48 89 45 18          	mov    %rax,0x18(%rbp)
  402d4d:	66 c7 45 20 65 72    	movw   $0x7265,0x20(%rbp)
  402d53:	c6 45 22 00          	movb   $0x0,0x22(%rbp)
  402d57:	89 df                	mov    %ebx,%edi
  402d59:	e8 e2 df ff ff       	callq  400d40 <close@plt>
  402d5e:	b8 ff ff ff ff       	mov    $0xffffffff,%eax
  402d63:	eb 16                	jmp    402d7b <init_driver+0x1d7>
  402d65:	89 df                	mov    %ebx,%edi
  402d67:	e8 d4 df ff ff       	callq  400d40 <close@plt>
  402d6c:	66 c7 45 00 4f 4b    	movw   $0x4b4f,0x0(%rbp)
  402d72:	c6 45 02 00          	movb   $0x0,0x2(%rbp)
  402d76:	b8 00 00 00 00       	mov    $0x0,%eax
  402d7b:	48 8b 4c 24 18       	mov    0x18(%rsp),%rcx
  402d80:	64 48 33 0c 25 28 00 	xor    %fs:0x28,%rcx
  402d87:	00 00 
  402d89:	74 05                	je     402d90 <init_driver+0x1ec>
  402d8b:	e8 70 df ff ff       	callq  400d00 <__stack_chk_fail@plt>
  402d90:	48 83 c4 28          	add    $0x28,%rsp
  402d94:	5b                   	pop    %rbx
  402d95:	5d                   	pop    %rbp
  402d96:	c3                   	retq   

0000000000402d97 <driver_post>:
  402d97:	53                   	push   %rbx
  402d98:	4c 89 cb             	mov    %r9,%rbx
  402d9b:	45 85 c0             	test   %r8d,%r8d
  402d9e:	74 27                	je     402dc7 <driver_post+0x30>
  402da0:	48 89 ca             	mov    %rcx,%rdx
  402da3:	be c5 36 40 00       	mov    $0x4036c5,%esi
  402da8:	bf 01 00 00 00       	mov    $0x1,%edi
  402dad:	b8 00 00 00 00       	mov    $0x0,%eax
  402db2:	e8 69 e0 ff ff       	callq  400e20 <__printf_chk@plt>
  402db7:	66 c7 03 4f 4b       	movw   $0x4b4f,(%rbx)
  402dbc:	c6 43 02 00          	movb   $0x0,0x2(%rbx)
  402dc0:	b8 00 00 00 00       	mov    $0x0,%eax
  402dc5:	eb 3f                	jmp    402e06 <driver_post+0x6f>
  402dc7:	48 85 ff             	test   %rdi,%rdi
  402dca:	74 2c                	je     402df8 <driver_post+0x61>
  402dcc:	80 3f 00             	cmpb   $0x0,(%rdi)
  402dcf:	74 27                	je     402df8 <driver_post+0x61>
  402dd1:	48 83 ec 08          	sub    $0x8,%rsp
  402dd5:	41 51                	push   %r9
  402dd7:	49 89 c9             	mov    %rcx,%r9
  402dda:	49 89 d0             	mov    %rdx,%r8
  402ddd:	48 89 f9             	mov    %rdi,%rcx
  402de0:	48 89 f2             	mov    %rsi,%rdx
  402de3:	be f3 4e 00 00       	mov    $0x4ef3,%esi
  402de8:	bf ff 31 40 00       	mov    $0x4031ff,%edi
  402ded:	e8 28 f6 ff ff       	callq  40241a <submitr>
  402df2:	48 83 c4 10          	add    $0x10,%rsp
  402df6:	eb 0e                	jmp    402e06 <driver_post+0x6f>
  402df8:	66 c7 03 4f 4b       	movw   $0x4b4f,(%rbx)
  402dfd:	c6 43 02 00          	movb   $0x0,0x2(%rbx)
  402e01:	b8 00 00 00 00       	mov    $0x0,%eax
  402e06:	5b                   	pop    %rbx
  402e07:	c3                   	retq   

0000000000402e08 <check>:
  402e08:	89 f8                	mov    %edi,%eax
  402e0a:	c1 e8 1c             	shr    $0x1c,%eax
  402e0d:	85 c0                	test   %eax,%eax
  402e0f:	74 1d                	je     402e2e <check+0x26>
  402e11:	b9 00 00 00 00       	mov    $0x0,%ecx
  402e16:	eb 0b                	jmp    402e23 <check+0x1b>
  402e18:	89 f8                	mov    %edi,%eax
  402e1a:	d3 e8                	shr    %cl,%eax
  402e1c:	3c 0a                	cmp    $0xa,%al
  402e1e:	74 14                	je     402e34 <check+0x2c>
  402e20:	83 c1 08             	add    $0x8,%ecx
  402e23:	83 f9 1f             	cmp    $0x1f,%ecx
  402e26:	7e f0                	jle    402e18 <check+0x10>
  402e28:	b8 01 00 00 00       	mov    $0x1,%eax
  402e2d:	c3                   	retq   
  402e2e:	b8 00 00 00 00       	mov    $0x0,%eax
  402e33:	c3                   	retq   
  402e34:	b8 00 00 00 00       	mov    $0x0,%eax
  402e39:	c3                   	retq   

0000000000402e3a <gencookie>:
  402e3a:	53                   	push   %rbx
  402e3b:	83 c7 01             	add    $0x1,%edi
  402e3e:	e8 6d de ff ff       	callq  400cb0 <srandom@plt>
  402e43:	e8 98 df ff ff       	callq  400de0 <random@plt>
  402e48:	89 c3                	mov    %eax,%ebx
  402e4a:	89 c7                	mov    %eax,%edi
  402e4c:	e8 b7 ff ff ff       	callq  402e08 <check>
  402e51:	85 c0                	test   %eax,%eax
  402e53:	74 ee                	je     402e43 <gencookie+0x9>
  402e55:	89 d8                	mov    %ebx,%eax
  402e57:	5b                   	pop    %rbx
  402e58:	c3                   	retq   
  402e59:	0f 1f 80 00 00 00 00 	nopl   0x0(%rax)

0000000000402e60 <__libc_csu_init>:
  402e60:	41 57                	push   %r15
  402e62:	41 89 ff             	mov    %edi,%r15d
  402e65:	41 56                	push   %r14
  402e67:	49 89 f6             	mov    %rsi,%r14
  402e6a:	41 55                	push   %r13
  402e6c:	49 89 d5             	mov    %rdx,%r13
  402e6f:	41 54                	push   %r12
  402e71:	4c 8d 25 98 0f 20 00 	lea    0x200f98(%rip),%r12        # 603e10 <__frame_dummy_init_array_entry>
  402e78:	55                   	push   %rbp
  402e79:	48 8d 2d 98 0f 20 00 	lea    0x200f98(%rip),%rbp        # 603e18 <__init_array_end>
  402e80:	53                   	push   %rbx
  402e81:	4c 29 e5             	sub    %r12,%rbp
  402e84:	31 db                	xor    %ebx,%ebx
  402e86:	48 c1 fd 03          	sar    $0x3,%rbp
  402e8a:	48 83 ec 08          	sub    $0x8,%rsp
  402e8e:	e8 cd dd ff ff       	callq  400c60 <_init>
  402e93:	48 85 ed             	test   %rbp,%rbp
  402e96:	74 1e                	je     402eb6 <__libc_csu_init+0x56>
  402e98:	0f 1f 84 00 00 00 00 	nopl   0x0(%rax,%rax,1)
  402e9f:	00 
  402ea0:	4c 89 ea             	mov    %r13,%rdx
  402ea3:	4c 89 f6             	mov    %r14,%rsi
  402ea6:	44 89 ff             	mov    %r15d,%edi
  402ea9:	41 ff 14 dc          	callq  *(%r12,%rbx,8)
  402ead:	48 83 c3 01          	add    $0x1,%rbx
  402eb1:	48 39 eb             	cmp    %rbp,%rbx
  402eb4:	75 ea                	jne    402ea0 <__libc_csu_init+0x40>
  402eb6:	48 83 c4 08          	add    $0x8,%rsp
  402eba:	5b                   	pop    %rbx
  402ebb:	5d                   	pop    %rbp
  402ebc:	41 5c                	pop    %r12
  402ebe:	41 5d                	pop    %r13
  402ec0:	41 5e                	pop    %r14
  402ec2:	41 5f                	pop    %r15
  402ec4:	c3                   	retq   
  402ec5:	66 66 2e 0f 1f 84 00 	data16 nopw %cs:0x0(%rax,%rax,1)
  402ecc:	00 00 00 00 

0000000000402ed0 <__libc_csu_fini>:
  402ed0:	f3 c3                	repz retq 

Disassembly of section .fini:

0000000000402ed4 <_fini>:
  402ed4:	48 83 ec 08          	sub    $0x8,%rsp
  402ed8:	48 83 c4 08          	add    $0x8,%rsp
  402edc:	c3                   	retq   
