
rtarget:     file format elf64-x86-64


Disassembly of section .init:

0000000000400c60 <_init>:
  400c60:	48 83 ec 08          	sub    $0x8,%rsp
  400c64:	48 8b 05 8d 43 20 00 	mov    0x20438d(%rip),%rax        # 604ff8 <_DYNAMIC+0x1d0>
  400c6b:	48 85 c0             	test   %rax,%rax
  400c6e:	74 05                	je     400c75 <_init+0x15>
  400c70:	e8 2b 01 00 00       	callq  400da0 <__gmon_start__@plt>
  400c75:	48 83 c4 08          	add    $0x8,%rsp
  400c79:	c3                   	retq   

Disassembly of section .plt:

0000000000400c80 <strcasecmp@plt-0x10>:
  400c80:	ff 35 82 43 20 00    	pushq  0x204382(%rip)        # 605008 <_GLOBAL_OFFSET_TABLE_+0x8>
  400c86:	ff 25 84 43 20 00    	jmpq   *0x204384(%rip)        # 605010 <_GLOBAL_OFFSET_TABLE_+0x10>
  400c8c:	0f 1f 40 00          	nopl   0x0(%rax)

0000000000400c90 <strcasecmp@plt>:
  400c90:	ff 25 82 43 20 00    	jmpq   *0x204382(%rip)        # 605018 <_GLOBAL_OFFSET_TABLE_+0x18>
  400c96:	68 00 00 00 00       	pushq  $0x0
  400c9b:	e9 e0 ff ff ff       	jmpq   400c80 <_init+0x20>

0000000000400ca0 <__errno_location@plt>:
  400ca0:	ff 25 7a 43 20 00    	jmpq   *0x20437a(%rip)        # 605020 <_GLOBAL_OFFSET_TABLE_+0x20>
  400ca6:	68 01 00 00 00       	pushq  $0x1
  400cab:	e9 d0 ff ff ff       	jmpq   400c80 <_init+0x20>

0000000000400cb0 <srandom@plt>:
  400cb0:	ff 25 72 43 20 00    	jmpq   *0x204372(%rip)        # 605028 <_GLOBAL_OFFSET_TABLE_+0x28>
  400cb6:	68 02 00 00 00       	pushq  $0x2
  400cbb:	e9 c0 ff ff ff       	jmpq   400c80 <_init+0x20>

0000000000400cc0 <strncmp@plt>:
  400cc0:	ff 25 6a 43 20 00    	jmpq   *0x20436a(%rip)        # 605030 <_GLOBAL_OFFSET_TABLE_+0x30>
  400cc6:	68 03 00 00 00       	pushq  $0x3
  400ccb:	e9 b0 ff ff ff       	jmpq   400c80 <_init+0x20>

0000000000400cd0 <strcpy@plt>:
  400cd0:	ff 25 62 43 20 00    	jmpq   *0x204362(%rip)        # 605038 <_GLOBAL_OFFSET_TABLE_+0x38>
  400cd6:	68 04 00 00 00       	pushq  $0x4
  400cdb:	e9 a0 ff ff ff       	jmpq   400c80 <_init+0x20>

0000000000400ce0 <puts@plt>:
  400ce0:	ff 25 5a 43 20 00    	jmpq   *0x20435a(%rip)        # 605040 <_GLOBAL_OFFSET_TABLE_+0x40>
  400ce6:	68 05 00 00 00       	pushq  $0x5
  400ceb:	e9 90 ff ff ff       	jmpq   400c80 <_init+0x20>

0000000000400cf0 <write@plt>:
  400cf0:	ff 25 52 43 20 00    	jmpq   *0x204352(%rip)        # 605048 <_GLOBAL_OFFSET_TABLE_+0x48>
  400cf6:	68 06 00 00 00       	pushq  $0x6
  400cfb:	e9 80 ff ff ff       	jmpq   400c80 <_init+0x20>

0000000000400d00 <__stack_chk_fail@plt>:
  400d00:	ff 25 4a 43 20 00    	jmpq   *0x20434a(%rip)        # 605050 <_GLOBAL_OFFSET_TABLE_+0x50>
  400d06:	68 07 00 00 00       	pushq  $0x7
  400d0b:	e9 70 ff ff ff       	jmpq   400c80 <_init+0x20>

0000000000400d10 <mmap@plt>:
  400d10:	ff 25 42 43 20 00    	jmpq   *0x204342(%rip)        # 605058 <_GLOBAL_OFFSET_TABLE_+0x58>
  400d16:	68 08 00 00 00       	pushq  $0x8
  400d1b:	e9 60 ff ff ff       	jmpq   400c80 <_init+0x20>

0000000000400d20 <memset@plt>:
  400d20:	ff 25 3a 43 20 00    	jmpq   *0x20433a(%rip)        # 605060 <_GLOBAL_OFFSET_TABLE_+0x60>
  400d26:	68 09 00 00 00       	pushq  $0x9
  400d2b:	e9 50 ff ff ff       	jmpq   400c80 <_init+0x20>

0000000000400d30 <alarm@plt>:
  400d30:	ff 25 32 43 20 00    	jmpq   *0x204332(%rip)        # 605068 <_GLOBAL_OFFSET_TABLE_+0x68>
  400d36:	68 0a 00 00 00       	pushq  $0xa
  400d3b:	e9 40 ff ff ff       	jmpq   400c80 <_init+0x20>

0000000000400d40 <close@plt>:
  400d40:	ff 25 2a 43 20 00    	jmpq   *0x20432a(%rip)        # 605070 <_GLOBAL_OFFSET_TABLE_+0x70>
  400d46:	68 0b 00 00 00       	pushq  $0xb
  400d4b:	e9 30 ff ff ff       	jmpq   400c80 <_init+0x20>

0000000000400d50 <read@plt>:
  400d50:	ff 25 22 43 20 00    	jmpq   *0x204322(%rip)        # 605078 <_GLOBAL_OFFSET_TABLE_+0x78>
  400d56:	68 0c 00 00 00       	pushq  $0xc
  400d5b:	e9 20 ff ff ff       	jmpq   400c80 <_init+0x20>

0000000000400d60 <__libc_start_main@plt>:
  400d60:	ff 25 1a 43 20 00    	jmpq   *0x20431a(%rip)        # 605080 <_GLOBAL_OFFSET_TABLE_+0x80>
  400d66:	68 0d 00 00 00       	pushq  $0xd
  400d6b:	e9 10 ff ff ff       	jmpq   400c80 <_init+0x20>

0000000000400d70 <signal@plt>:
  400d70:	ff 25 12 43 20 00    	jmpq   *0x204312(%rip)        # 605088 <_GLOBAL_OFFSET_TABLE_+0x88>
  400d76:	68 0e 00 00 00       	pushq  $0xe
  400d7b:	e9 00 ff ff ff       	jmpq   400c80 <_init+0x20>

0000000000400d80 <gethostbyname@plt>:
  400d80:	ff 25 0a 43 20 00    	jmpq   *0x20430a(%rip)        # 605090 <_GLOBAL_OFFSET_TABLE_+0x90>
  400d86:	68 0f 00 00 00       	pushq  $0xf
  400d8b:	e9 f0 fe ff ff       	jmpq   400c80 <_init+0x20>

0000000000400d90 <__memmove_chk@plt>:
  400d90:	ff 25 02 43 20 00    	jmpq   *0x204302(%rip)        # 605098 <_GLOBAL_OFFSET_TABLE_+0x98>
  400d96:	68 10 00 00 00       	pushq  $0x10
  400d9b:	e9 e0 fe ff ff       	jmpq   400c80 <_init+0x20>

0000000000400da0 <__gmon_start__@plt>:
  400da0:	ff 25 fa 42 20 00    	jmpq   *0x2042fa(%rip)        # 6050a0 <_GLOBAL_OFFSET_TABLE_+0xa0>
  400da6:	68 11 00 00 00       	pushq  $0x11
  400dab:	e9 d0 fe ff ff       	jmpq   400c80 <_init+0x20>

0000000000400db0 <strtol@plt>:
  400db0:	ff 25 f2 42 20 00    	jmpq   *0x2042f2(%rip)        # 6050a8 <_GLOBAL_OFFSET_TABLE_+0xa8>
  400db6:	68 12 00 00 00       	pushq  $0x12
  400dbb:	e9 c0 fe ff ff       	jmpq   400c80 <_init+0x20>

0000000000400dc0 <memcpy@plt>:
  400dc0:	ff 25 ea 42 20 00    	jmpq   *0x2042ea(%rip)        # 6050b0 <_GLOBAL_OFFSET_TABLE_+0xb0>
  400dc6:	68 13 00 00 00       	pushq  $0x13
  400dcb:	e9 b0 fe ff ff       	jmpq   400c80 <_init+0x20>

0000000000400dd0 <time@plt>:
  400dd0:	ff 25 e2 42 20 00    	jmpq   *0x2042e2(%rip)        # 6050b8 <_GLOBAL_OFFSET_TABLE_+0xb8>
  400dd6:	68 14 00 00 00       	pushq  $0x14
  400ddb:	e9 a0 fe ff ff       	jmpq   400c80 <_init+0x20>

0000000000400de0 <random@plt>:
  400de0:	ff 25 da 42 20 00    	jmpq   *0x2042da(%rip)        # 6050c0 <_GLOBAL_OFFSET_TABLE_+0xc0>
  400de6:	68 15 00 00 00       	pushq  $0x15
  400deb:	e9 90 fe ff ff       	jmpq   400c80 <_init+0x20>

0000000000400df0 <_IO_getc@plt>:
  400df0:	ff 25 d2 42 20 00    	jmpq   *0x2042d2(%rip)        # 6050c8 <_GLOBAL_OFFSET_TABLE_+0xc8>
  400df6:	68 16 00 00 00       	pushq  $0x16
  400dfb:	e9 80 fe ff ff       	jmpq   400c80 <_init+0x20>

0000000000400e00 <__isoc99_sscanf@plt>:
  400e00:	ff 25 ca 42 20 00    	jmpq   *0x2042ca(%rip)        # 6050d0 <_GLOBAL_OFFSET_TABLE_+0xd0>
  400e06:	68 17 00 00 00       	pushq  $0x17
  400e0b:	e9 70 fe ff ff       	jmpq   400c80 <_init+0x20>

0000000000400e10 <munmap@plt>:
  400e10:	ff 25 c2 42 20 00    	jmpq   *0x2042c2(%rip)        # 6050d8 <_GLOBAL_OFFSET_TABLE_+0xd8>
  400e16:	68 18 00 00 00       	pushq  $0x18
  400e1b:	e9 60 fe ff ff       	jmpq   400c80 <_init+0x20>

0000000000400e20 <__printf_chk@plt>:
  400e20:	ff 25 ba 42 20 00    	jmpq   *0x2042ba(%rip)        # 6050e0 <_GLOBAL_OFFSET_TABLE_+0xe0>
  400e26:	68 19 00 00 00       	pushq  $0x19
  400e2b:	e9 50 fe ff ff       	jmpq   400c80 <_init+0x20>

0000000000400e30 <fopen@plt>:
  400e30:	ff 25 b2 42 20 00    	jmpq   *0x2042b2(%rip)        # 6050e8 <_GLOBAL_OFFSET_TABLE_+0xe8>
  400e36:	68 1a 00 00 00       	pushq  $0x1a
  400e3b:	e9 40 fe ff ff       	jmpq   400c80 <_init+0x20>

0000000000400e40 <getopt@plt>:
  400e40:	ff 25 aa 42 20 00    	jmpq   *0x2042aa(%rip)        # 6050f0 <_GLOBAL_OFFSET_TABLE_+0xf0>
  400e46:	68 1b 00 00 00       	pushq  $0x1b
  400e4b:	e9 30 fe ff ff       	jmpq   400c80 <_init+0x20>

0000000000400e50 <strtoul@plt>:
  400e50:	ff 25 a2 42 20 00    	jmpq   *0x2042a2(%rip)        # 6050f8 <_GLOBAL_OFFSET_TABLE_+0xf8>
  400e56:	68 1c 00 00 00       	pushq  $0x1c
  400e5b:	e9 20 fe ff ff       	jmpq   400c80 <_init+0x20>

0000000000400e60 <gethostname@plt>:
  400e60:	ff 25 9a 42 20 00    	jmpq   *0x20429a(%rip)        # 605100 <_GLOBAL_OFFSET_TABLE_+0x100>
  400e66:	68 1d 00 00 00       	pushq  $0x1d
  400e6b:	e9 10 fe ff ff       	jmpq   400c80 <_init+0x20>

0000000000400e70 <exit@plt>:
  400e70:	ff 25 92 42 20 00    	jmpq   *0x204292(%rip)        # 605108 <_GLOBAL_OFFSET_TABLE_+0x108>
  400e76:	68 1e 00 00 00       	pushq  $0x1e
  400e7b:	e9 00 fe ff ff       	jmpq   400c80 <_init+0x20>

0000000000400e80 <connect@plt>:
  400e80:	ff 25 8a 42 20 00    	jmpq   *0x20428a(%rip)        # 605110 <_GLOBAL_OFFSET_TABLE_+0x110>
  400e86:	68 1f 00 00 00       	pushq  $0x1f
  400e8b:	e9 f0 fd ff ff       	jmpq   400c80 <_init+0x20>

0000000000400e90 <__fprintf_chk@plt>:
  400e90:	ff 25 82 42 20 00    	jmpq   *0x204282(%rip)        # 605118 <_GLOBAL_OFFSET_TABLE_+0x118>
  400e96:	68 20 00 00 00       	pushq  $0x20
  400e9b:	e9 e0 fd ff ff       	jmpq   400c80 <_init+0x20>

0000000000400ea0 <__sprintf_chk@plt>:
  400ea0:	ff 25 7a 42 20 00    	jmpq   *0x20427a(%rip)        # 605120 <_GLOBAL_OFFSET_TABLE_+0x120>
  400ea6:	68 21 00 00 00       	pushq  $0x21
  400eab:	e9 d0 fd ff ff       	jmpq   400c80 <_init+0x20>

0000000000400eb0 <socket@plt>:
  400eb0:	ff 25 72 42 20 00    	jmpq   *0x204272(%rip)        # 605128 <_GLOBAL_OFFSET_TABLE_+0x128>
  400eb6:	68 22 00 00 00       	pushq  $0x22
  400ebb:	e9 c0 fd ff ff       	jmpq   400c80 <_init+0x20>

Disassembly of section .text:

0000000000400ec0 <_start>:
  400ec0:	31 ed                	xor    %ebp,%ebp
  400ec2:	49 89 d1             	mov    %rdx,%r9
  400ec5:	5e                   	pop    %rsi
  400ec6:	48 89 e2             	mov    %rsp,%rdx
  400ec9:	48 83 e4 f0          	and    $0xfffffffffffffff0,%rsp
  400ecd:	50                   	push   %rax
  400ece:	54                   	push   %rsp
  400ecf:	49 c7 c0 f0 2f 40 00 	mov    $0x402ff0,%r8
  400ed6:	48 c7 c1 80 2f 40 00 	mov    $0x402f80,%rcx
  400edd:	48 c7 c7 c5 11 40 00 	mov    $0x4011c5,%rdi
  400ee4:	e8 77 fe ff ff       	callq  400d60 <__libc_start_main@plt>
  400ee9:	f4                   	hlt    
  400eea:	66 0f 1f 44 00 00    	nopw   0x0(%rax,%rax,1)

0000000000400ef0 <deregister_tm_clones>:
  400ef0:	b8 b7 54 60 00       	mov    $0x6054b7,%eax
  400ef5:	55                   	push   %rbp
  400ef6:	48 2d b0 54 60 00    	sub    $0x6054b0,%rax
  400efc:	48 83 f8 0e          	cmp    $0xe,%rax
  400f00:	48 89 e5             	mov    %rsp,%rbp
  400f03:	76 1b                	jbe    400f20 <deregister_tm_clones+0x30>
  400f05:	b8 00 00 00 00       	mov    $0x0,%eax
  400f0a:	48 85 c0             	test   %rax,%rax
  400f0d:	74 11                	je     400f20 <deregister_tm_clones+0x30>
  400f0f:	5d                   	pop    %rbp
  400f10:	bf b0 54 60 00       	mov    $0x6054b0,%edi
  400f15:	ff e0                	jmpq   *%rax
  400f17:	66 0f 1f 84 00 00 00 	nopw   0x0(%rax,%rax,1)
  400f1e:	00 00 
  400f20:	5d                   	pop    %rbp
  400f21:	c3                   	retq   
  400f22:	66 66 66 66 66 2e 0f 	data16 data16 data16 data16 nopw %cs:0x0(%rax,%rax,1)
  400f29:	1f 84 00 00 00 00 00 

0000000000400f30 <register_tm_clones>:
  400f30:	be b0 54 60 00       	mov    $0x6054b0,%esi
  400f35:	55                   	push   %rbp
  400f36:	48 81 ee b0 54 60 00 	sub    $0x6054b0,%rsi
  400f3d:	48 c1 fe 03          	sar    $0x3,%rsi
  400f41:	48 89 e5             	mov    %rsp,%rbp
  400f44:	48 89 f0             	mov    %rsi,%rax
  400f47:	48 c1 e8 3f          	shr    $0x3f,%rax
  400f4b:	48 01 c6             	add    %rax,%rsi
  400f4e:	48 d1 fe             	sar    %rsi
  400f51:	74 15                	je     400f68 <register_tm_clones+0x38>
  400f53:	b8 00 00 00 00       	mov    $0x0,%eax
  400f58:	48 85 c0             	test   %rax,%rax
  400f5b:	74 0b                	je     400f68 <register_tm_clones+0x38>
  400f5d:	5d                   	pop    %rbp
  400f5e:	bf b0 54 60 00       	mov    $0x6054b0,%edi
  400f63:	ff e0                	jmpq   *%rax
  400f65:	0f 1f 00             	nopl   (%rax)
  400f68:	5d                   	pop    %rbp
  400f69:	c3                   	retq   
  400f6a:	66 0f 1f 44 00 00    	nopw   0x0(%rax,%rax,1)

0000000000400f70 <__do_global_dtors_aux>:
  400f70:	80 3d 79 45 20 00 00 	cmpb   $0x0,0x204579(%rip)        # 6054f0 <completed.7545>
  400f77:	75 11                	jne    400f8a <__do_global_dtors_aux+0x1a>
  400f79:	55                   	push   %rbp
  400f7a:	48 89 e5             	mov    %rsp,%rbp
  400f7d:	e8 6e ff ff ff       	callq  400ef0 <deregister_tm_clones>
  400f82:	5d                   	pop    %rbp
  400f83:	c6 05 66 45 20 00 01 	movb   $0x1,0x204566(%rip)        # 6054f0 <completed.7545>
  400f8a:	f3 c3                	repz retq 
  400f8c:	0f 1f 40 00          	nopl   0x0(%rax)

0000000000400f90 <frame_dummy>:
  400f90:	bf 20 4e 60 00       	mov    $0x604e20,%edi
  400f95:	48 83 3f 00          	cmpq   $0x0,(%rdi)
  400f99:	75 05                	jne    400fa0 <frame_dummy+0x10>
  400f9b:	eb 93                	jmp    400f30 <register_tm_clones>
  400f9d:	0f 1f 00             	nopl   (%rax)
  400fa0:	b8 00 00 00 00       	mov    $0x0,%eax
  400fa5:	48 85 c0             	test   %rax,%rax
  400fa8:	74 f1                	je     400f9b <frame_dummy+0xb>
  400faa:	55                   	push   %rbp
  400fab:	48 89 e5             	mov    %rsp,%rbp
  400fae:	ff d0                	callq  *%rax
  400fb0:	5d                   	pop    %rbp
  400fb1:	e9 7a ff ff ff       	jmpq   400f30 <register_tm_clones>

0000000000400fb6 <usage>:
  400fb6:	48 83 ec 08          	sub    $0x8,%rsp
  400fba:	48 89 fa             	mov    %rdi,%rdx
  400fbd:	83 3d 64 45 20 00 00 	cmpl   $0x0,0x204564(%rip)        # 605528 <is_checker>
  400fc4:	74 3e                	je     401004 <usage+0x4e>
  400fc6:	be 08 30 40 00       	mov    $0x403008,%esi
  400fcb:	bf 01 00 00 00       	mov    $0x1,%edi
  400fd0:	b8 00 00 00 00       	mov    $0x0,%eax
  400fd5:	e8 46 fe ff ff       	callq  400e20 <__printf_chk@plt>
  400fda:	bf 40 30 40 00       	mov    $0x403040,%edi
  400fdf:	e8 fc fc ff ff       	callq  400ce0 <puts@plt>
  400fe4:	bf b8 31 40 00       	mov    $0x4031b8,%edi
  400fe9:	e8 f2 fc ff ff       	callq  400ce0 <puts@plt>
  400fee:	bf 68 30 40 00       	mov    $0x403068,%edi
  400ff3:	e8 e8 fc ff ff       	callq  400ce0 <puts@plt>
  400ff8:	bf d2 31 40 00       	mov    $0x4031d2,%edi
  400ffd:	e8 de fc ff ff       	callq  400ce0 <puts@plt>
  401002:	eb 32                	jmp    401036 <usage+0x80>
  401004:	be ee 31 40 00       	mov    $0x4031ee,%esi
  401009:	bf 01 00 00 00       	mov    $0x1,%edi
  40100e:	b8 00 00 00 00       	mov    $0x0,%eax
  401013:	e8 08 fe ff ff       	callq  400e20 <__printf_chk@plt>
  401018:	bf 90 30 40 00       	mov    $0x403090,%edi
  40101d:	e8 be fc ff ff       	callq  400ce0 <puts@plt>
  401022:	bf b8 30 40 00       	mov    $0x4030b8,%edi
  401027:	e8 b4 fc ff ff       	callq  400ce0 <puts@plt>
  40102c:	bf 0c 32 40 00       	mov    $0x40320c,%edi
  401031:	e8 aa fc ff ff       	callq  400ce0 <puts@plt>
  401036:	bf 00 00 00 00       	mov    $0x0,%edi
  40103b:	e8 30 fe ff ff       	callq  400e70 <exit@plt>

0000000000401040 <initialize_target>:
  401040:	55                   	push   %rbp
  401041:	53                   	push   %rbx
  401042:	48 81 ec 18 21 00 00 	sub    $0x2118,%rsp
  401049:	89 f5                	mov    %esi,%ebp
  40104b:	64 48 8b 04 25 28 00 	mov    %fs:0x28,%rax
  401052:	00 00 
  401054:	48 89 84 24 08 21 00 	mov    %rax,0x2108(%rsp)
  40105b:	00 
  40105c:	31 c0                	xor    %eax,%eax
  40105e:	89 3d b4 44 20 00    	mov    %edi,0x2044b4(%rip)        # 605518 <check_level>
  401064:	8b 3d fe 40 20 00    	mov    0x2040fe(%rip),%edi        # 605168 <target_id>
  40106a:	e8 e9 1e 00 00       	callq  402f58 <gencookie>
  40106f:	89 05 af 44 20 00    	mov    %eax,0x2044af(%rip)        # 605524 <cookie>
  401075:	89 c7                	mov    %eax,%edi
  401077:	e8 dc 1e 00 00       	callq  402f58 <gencookie>
  40107c:	89 05 9e 44 20 00    	mov    %eax,0x20449e(%rip)        # 605520 <authkey>
  401082:	8b 05 e0 40 20 00    	mov    0x2040e0(%rip),%eax        # 605168 <target_id>
  401088:	8d 78 01             	lea    0x1(%rax),%edi
  40108b:	e8 20 fc ff ff       	callq  400cb0 <srandom@plt>
  401090:	e8 4b fd ff ff       	callq  400de0 <random@plt>
  401095:	89 c7                	mov    %eax,%edi
  401097:	e8 03 03 00 00       	callq  40139f <scramble>
  40109c:	89 c3                	mov    %eax,%ebx
  40109e:	85 ed                	test   %ebp,%ebp
  4010a0:	74 18                	je     4010ba <initialize_target+0x7a>
  4010a2:	bf 00 00 00 00       	mov    $0x0,%edi
  4010a7:	e8 24 fd ff ff       	callq  400dd0 <time@plt>
  4010ac:	89 c7                	mov    %eax,%edi
  4010ae:	e8 fd fb ff ff       	callq  400cb0 <srandom@plt>
  4010b3:	e8 28 fd ff ff       	callq  400de0 <random@plt>
  4010b8:	eb 05                	jmp    4010bf <initialize_target+0x7f>
  4010ba:	b8 00 00 00 00       	mov    $0x0,%eax
  4010bf:	01 c3                	add    %eax,%ebx
  4010c1:	0f b7 db             	movzwl %bx,%ebx
  4010c4:	8d 04 dd 00 01 00 00 	lea    0x100(,%rbx,8),%eax
  4010cb:	89 c0                	mov    %eax,%eax
  4010cd:	48 89 05 cc 43 20 00 	mov    %rax,0x2043cc(%rip)        # 6054a0 <buf_offset>
  4010d4:	c6 05 6d 50 20 00 72 	movb   $0x72,0x20506d(%rip)        # 606148 <target_prefix>
  4010db:	83 3d c6 43 20 00 00 	cmpl   $0x0,0x2043c6(%rip)        # 6054a8 <notify>
  4010e2:	0f 84 bb 00 00 00    	je     4011a3 <initialize_target+0x163>
  4010e8:	83 3d 39 44 20 00 00 	cmpl   $0x0,0x204439(%rip)        # 605528 <is_checker>
  4010ef:	0f 85 ae 00 00 00    	jne    4011a3 <initialize_target+0x163>
  4010f5:	be 00 01 00 00       	mov    $0x100,%esi
  4010fa:	48 89 e7             	mov    %rsp,%rdi
  4010fd:	e8 5e fd ff ff       	callq  400e60 <gethostname@plt>
  401102:	85 c0                	test   %eax,%eax
  401104:	74 25                	je     40112b <initialize_target+0xeb>
  401106:	bf e8 30 40 00       	mov    $0x4030e8,%edi
  40110b:	e8 d0 fb ff ff       	callq  400ce0 <puts@plt>
  401110:	bf 08 00 00 00       	mov    $0x8,%edi
  401115:	e8 56 fd ff ff       	callq  400e70 <exit@plt>
  40111a:	48 89 e6             	mov    %rsp,%rsi
  40111d:	e8 6e fb ff ff       	callq  400c90 <strcasecmp@plt>
  401122:	85 c0                	test   %eax,%eax
  401124:	74 21                	je     401147 <initialize_target+0x107>
  401126:	83 c3 01             	add    $0x1,%ebx
  401129:	eb 05                	jmp    401130 <initialize_target+0xf0>
  40112b:	bb 00 00 00 00       	mov    $0x0,%ebx
  401130:	48 63 c3             	movslq %ebx,%rax
  401133:	48 8b 3c c5 80 51 60 	mov    0x605180(,%rax,8),%rdi
  40113a:	00 
  40113b:	48 85 ff             	test   %rdi,%rdi
  40113e:	75 da                	jne    40111a <initialize_target+0xda>
  401140:	b8 00 00 00 00       	mov    $0x0,%eax
  401145:	eb 05                	jmp    40114c <initialize_target+0x10c>
  401147:	b8 01 00 00 00       	mov    $0x1,%eax
  40114c:	85 c0                	test   %eax,%eax
  40114e:	75 1c                	jne    40116c <initialize_target+0x12c>
  401150:	48 89 e2             	mov    %rsp,%rdx
  401153:	be 20 31 40 00       	mov    $0x403120,%esi
  401158:	bf 01 00 00 00       	mov    $0x1,%edi
  40115d:	e8 be fc ff ff       	callq  400e20 <__printf_chk@plt>
  401162:	bf 08 00 00 00       	mov    $0x8,%edi
  401167:	e8 04 fd ff ff       	callq  400e70 <exit@plt>
  40116c:	48 8d bc 24 00 01 00 	lea    0x100(%rsp),%rdi
  401173:	00 
  401174:	e8 49 1b 00 00       	callq  402cc2 <init_driver>
  401179:	85 c0                	test   %eax,%eax
  40117b:	79 26                	jns    4011a3 <initialize_target+0x163>
  40117d:	48 8d 94 24 00 01 00 	lea    0x100(%rsp),%rdx
  401184:	00 
  401185:	be 60 31 40 00       	mov    $0x403160,%esi
  40118a:	bf 01 00 00 00       	mov    $0x1,%edi
  40118f:	b8 00 00 00 00       	mov    $0x0,%eax
  401194:	e8 87 fc ff ff       	callq  400e20 <__printf_chk@plt>
  401199:	bf 08 00 00 00       	mov    $0x8,%edi
  40119e:	e8 cd fc ff ff       	callq  400e70 <exit@plt>
  4011a3:	48 8b 84 24 08 21 00 	mov    0x2108(%rsp),%rax
  4011aa:	00 
  4011ab:	64 48 33 04 25 28 00 	xor    %fs:0x28,%rax
  4011b2:	00 00 
  4011b4:	74 05                	je     4011bb <initialize_target+0x17b>
  4011b6:	e8 45 fb ff ff       	callq  400d00 <__stack_chk_fail@plt>
  4011bb:	48 81 c4 18 21 00 00 	add    $0x2118,%rsp
  4011c2:	5b                   	pop    %rbx
  4011c3:	5d                   	pop    %rbp
  4011c4:	c3                   	retq   

00000000004011c5 <main>:
  4011c5:	41 56                	push   %r14
  4011c7:	41 55                	push   %r13
  4011c9:	41 54                	push   %r12
  4011cb:	55                   	push   %rbp
  4011cc:	53                   	push   %rbx
  4011cd:	41 89 fc             	mov    %edi,%r12d
  4011d0:	48 89 f3             	mov    %rsi,%rbx
  4011d3:	be 31 20 40 00       	mov    $0x402031,%esi
  4011d8:	bf 0b 00 00 00       	mov    $0xb,%edi
  4011dd:	e8 8e fb ff ff       	callq  400d70 <signal@plt>
  4011e2:	be e3 1f 40 00       	mov    $0x401fe3,%esi
  4011e7:	bf 07 00 00 00       	mov    $0x7,%edi
  4011ec:	e8 7f fb ff ff       	callq  400d70 <signal@plt>
  4011f1:	be 7f 20 40 00       	mov    $0x40207f,%esi
  4011f6:	bf 04 00 00 00       	mov    $0x4,%edi
  4011fb:	e8 70 fb ff ff       	callq  400d70 <signal@plt>
  401200:	83 3d 21 43 20 00 00 	cmpl   $0x0,0x204321(%rip)        # 605528 <is_checker>
  401207:	74 20                	je     401229 <main+0x64>
  401209:	be cd 20 40 00       	mov    $0x4020cd,%esi
  40120e:	bf 0e 00 00 00       	mov    $0xe,%edi
  401213:	e8 58 fb ff ff       	callq  400d70 <signal@plt>
  401218:	bf 05 00 00 00       	mov    $0x5,%edi
  40121d:	e8 0e fb ff ff       	callq  400d30 <alarm@plt>
  401222:	bd 2a 32 40 00       	mov    $0x40322a,%ebp
  401227:	eb 05                	jmp    40122e <main+0x69>
  401229:	bd 25 32 40 00       	mov    $0x403225,%ebp
  40122e:	48 8b 05 8b 42 20 00 	mov    0x20428b(%rip),%rax        # 6054c0 <stdin@@GLIBC_2.2.5>
  401235:	48 89 05 d4 42 20 00 	mov    %rax,0x2042d4(%rip)        # 605510 <infile>
  40123c:	41 bd 00 00 00 00    	mov    $0x0,%r13d
  401242:	41 be 00 00 00 00    	mov    $0x0,%r14d
  401248:	e9 c6 00 00 00       	jmpq   401313 <main+0x14e>
  40124d:	83 e8 61             	sub    $0x61,%eax
  401250:	3c 10                	cmp    $0x10,%al
  401252:	0f 87 9c 00 00 00    	ja     4012f4 <main+0x12f>
  401258:	0f b6 c0             	movzbl %al,%eax
  40125b:	ff 24 c5 70 32 40 00 	jmpq   *0x403270(,%rax,8)
  401262:	48 8b 3b             	mov    (%rbx),%rdi
  401265:	e8 4c fd ff ff       	callq  400fb6 <usage>
  40126a:	be dd 34 40 00       	mov    $0x4034dd,%esi
  40126f:	48 8b 3d 6a 42 20 00 	mov    0x20426a(%rip),%rdi        # 6054e0 <optarg@@GLIBC_2.2.5>
  401276:	e8 b5 fb ff ff       	callq  400e30 <fopen@plt>
  40127b:	48 89 05 8e 42 20 00 	mov    %rax,0x20428e(%rip)        # 605510 <infile>
  401282:	48 85 c0             	test   %rax,%rax
  401285:	0f 85 88 00 00 00    	jne    401313 <main+0x14e>
  40128b:	48 8b 0d 4e 42 20 00 	mov    0x20424e(%rip),%rcx        # 6054e0 <optarg@@GLIBC_2.2.5>
  401292:	ba 32 32 40 00       	mov    $0x403232,%edx
  401297:	be 01 00 00 00       	mov    $0x1,%esi
  40129c:	48 8b 3d 45 42 20 00 	mov    0x204245(%rip),%rdi        # 6054e8 <stderr@@GLIBC_2.2.5>
  4012a3:	e8 e8 fb ff ff       	callq  400e90 <__fprintf_chk@plt>
  4012a8:	b8 01 00 00 00       	mov    $0x1,%eax
  4012ad:	e9 e4 00 00 00       	jmpq   401396 <main+0x1d1>
  4012b2:	ba 10 00 00 00       	mov    $0x10,%edx
  4012b7:	be 00 00 00 00       	mov    $0x0,%esi
  4012bc:	48 8b 3d 1d 42 20 00 	mov    0x20421d(%rip),%rdi        # 6054e0 <optarg@@GLIBC_2.2.5>
  4012c3:	e8 88 fb ff ff       	callq  400e50 <strtoul@plt>
  4012c8:	41 89 c6             	mov    %eax,%r14d
  4012cb:	eb 46                	jmp    401313 <main+0x14e>
  4012cd:	ba 0a 00 00 00       	mov    $0xa,%edx
  4012d2:	be 00 00 00 00       	mov    $0x0,%esi
  4012d7:	48 8b 3d 02 42 20 00 	mov    0x204202(%rip),%rdi        # 6054e0 <optarg@@GLIBC_2.2.5>
  4012de:	e8 cd fa ff ff       	callq  400db0 <strtol@plt>
  4012e3:	41 89 c5             	mov    %eax,%r13d
  4012e6:	eb 2b                	jmp    401313 <main+0x14e>
  4012e8:	c7 05 b6 41 20 00 00 	movl   $0x0,0x2041b6(%rip)        # 6054a8 <notify>
  4012ef:	00 00 00 
  4012f2:	eb 1f                	jmp    401313 <main+0x14e>
  4012f4:	0f be d2             	movsbl %dl,%edx
  4012f7:	be 4f 32 40 00       	mov    $0x40324f,%esi
  4012fc:	bf 01 00 00 00       	mov    $0x1,%edi
  401301:	b8 00 00 00 00       	mov    $0x0,%eax
  401306:	e8 15 fb ff ff       	callq  400e20 <__printf_chk@plt>
  40130b:	48 8b 3b             	mov    (%rbx),%rdi
  40130e:	e8 a3 fc ff ff       	callq  400fb6 <usage>
  401313:	48 89 ea             	mov    %rbp,%rdx
  401316:	48 89 de             	mov    %rbx,%rsi
  401319:	44 89 e7             	mov    %r12d,%edi
  40131c:	e8 1f fb ff ff       	callq  400e40 <getopt@plt>
  401321:	89 c2                	mov    %eax,%edx
  401323:	3c ff                	cmp    $0xff,%al
  401325:	0f 85 22 ff ff ff    	jne    40124d <main+0x88>
  40132b:	be 01 00 00 00       	mov    $0x1,%esi
  401330:	44 89 ef             	mov    %r13d,%edi
  401333:	e8 08 fd ff ff       	callq  401040 <initialize_target>
  401338:	83 3d e9 41 20 00 00 	cmpl   $0x0,0x2041e9(%rip)        # 605528 <is_checker>
  40133f:	74 2a                	je     40136b <main+0x1a6>
  401341:	44 3b 35 d8 41 20 00 	cmp    0x2041d8(%rip),%r14d        # 605520 <authkey>
  401348:	74 21                	je     40136b <main+0x1a6>
  40134a:	44 89 f2             	mov    %r14d,%edx
  40134d:	be 88 31 40 00       	mov    $0x403188,%esi
  401352:	bf 01 00 00 00       	mov    $0x1,%edi
  401357:	b8 00 00 00 00       	mov    $0x0,%eax
  40135c:	e8 bf fa ff ff       	callq  400e20 <__printf_chk@plt>
  401361:	b8 00 00 00 00       	mov    $0x0,%eax
  401366:	e8 14 09 00 00       	callq  401c7f <check_fail>
  40136b:	8b 15 b3 41 20 00    	mov    0x2041b3(%rip),%edx        # 605524 <cookie>
  401371:	be 62 32 40 00       	mov    $0x403262,%esi
  401376:	bf 01 00 00 00       	mov    $0x1,%edi
  40137b:	b8 00 00 00 00       	mov    $0x0,%eax
  401380:	e8 9b fa ff ff       	callq  400e20 <__printf_chk@plt>
  401385:	48 8b 3d 14 41 20 00 	mov    0x204114(%rip),%rdi        # 6054a0 <buf_offset>
  40138c:	e8 8f 0d 00 00       	callq  402120 <launch>
  401391:	b8 00 00 00 00       	mov    $0x0,%eax
  401396:	5b                   	pop    %rbx
  401397:	5d                   	pop    %rbp
  401398:	41 5c                	pop    %r12
  40139a:	41 5d                	pop    %r13
  40139c:	41 5e                	pop    %r14
  40139e:	c3                   	retq   

000000000040139f <scramble>:
  40139f:	b8 00 00 00 00       	mov    $0x0,%eax
  4013a4:	eb 11                	jmp    4013b7 <scramble+0x18>
  4013a6:	69 d0 a5 0b 00 00    	imul   $0xba5,%eax,%edx
  4013ac:	01 fa                	add    %edi,%edx
  4013ae:	89 c1                	mov    %eax,%ecx
  4013b0:	89 54 8c c8          	mov    %edx,-0x38(%rsp,%rcx,4)
  4013b4:	83 c0 01             	add    $0x1,%eax
  4013b7:	83 f8 09             	cmp    $0x9,%eax
  4013ba:	76 ea                	jbe    4013a6 <scramble+0x7>
  4013bc:	8b 44 24 e4          	mov    -0x1c(%rsp),%eax
  4013c0:	69 c0 3e 92 00 00    	imul   $0x923e,%eax,%eax
  4013c6:	89 44 24 e4          	mov    %eax,-0x1c(%rsp)
  4013ca:	8b 44 24 c8          	mov    -0x38(%rsp),%eax
  4013ce:	69 c0 f2 45 00 00    	imul   $0x45f2,%eax,%eax
  4013d4:	89 44 24 c8          	mov    %eax,-0x38(%rsp)
  4013d8:	8b 44 24 d4          	mov    -0x2c(%rsp),%eax
  4013dc:	69 c0 a6 dc 00 00    	imul   $0xdca6,%eax,%eax
  4013e2:	89 44 24 d4          	mov    %eax,-0x2c(%rsp)
  4013e6:	8b 44 24 e8          	mov    -0x18(%rsp),%eax
  4013ea:	69 c0 0c 89 00 00    	imul   $0x890c,%eax,%eax
  4013f0:	89 44 24 e8          	mov    %eax,-0x18(%rsp)
  4013f4:	8b 44 24 e8          	mov    -0x18(%rsp),%eax
  4013f8:	69 c0 1e df 00 00    	imul   $0xdf1e,%eax,%eax
  4013fe:	89 44 24 e8          	mov    %eax,-0x18(%rsp)
  401402:	8b 44 24 ec          	mov    -0x14(%rsp),%eax
  401406:	69 c0 0c 94 00 00    	imul   $0x940c,%eax,%eax
  40140c:	89 44 24 ec          	mov    %eax,-0x14(%rsp)
  401410:	8b 44 24 e4          	mov    -0x1c(%rsp),%eax
  401414:	69 c0 ca 49 00 00    	imul   $0x49ca,%eax,%eax
  40141a:	89 44 24 e4          	mov    %eax,-0x1c(%rsp)
  40141e:	8b 44 24 cc          	mov    -0x34(%rsp),%eax
  401422:	69 c0 f8 98 00 00    	imul   $0x98f8,%eax,%eax
  401428:	89 44 24 cc          	mov    %eax,-0x34(%rsp)
  40142c:	8b 44 24 ec          	mov    -0x14(%rsp),%eax
  401430:	69 c0 b4 29 00 00    	imul   $0x29b4,%eax,%eax
  401436:	89 44 24 ec          	mov    %eax,-0x14(%rsp)
  40143a:	8b 44 24 d0          	mov    -0x30(%rsp),%eax
  40143e:	69 c0 6b 13 00 00    	imul   $0x136b,%eax,%eax
  401444:	89 44 24 d0          	mov    %eax,-0x30(%rsp)
  401448:	8b 44 24 c8          	mov    -0x38(%rsp),%eax
  40144c:	69 c0 96 3b 00 00    	imul   $0x3b96,%eax,%eax
  401452:	89 44 24 c8          	mov    %eax,-0x38(%rsp)
  401456:	8b 44 24 ec          	mov    -0x14(%rsp),%eax
  40145a:	69 c0 75 fe 00 00    	imul   $0xfe75,%eax,%eax
  401460:	89 44 24 ec          	mov    %eax,-0x14(%rsp)
  401464:	8b 44 24 d4          	mov    -0x2c(%rsp),%eax
  401468:	69 c0 b7 f9 00 00    	imul   $0xf9b7,%eax,%eax
  40146e:	89 44 24 d4          	mov    %eax,-0x2c(%rsp)
  401472:	8b 44 24 cc          	mov    -0x34(%rsp),%eax
  401476:	69 c0 15 9e 00 00    	imul   $0x9e15,%eax,%eax
  40147c:	89 44 24 cc          	mov    %eax,-0x34(%rsp)
  401480:	8b 44 24 dc          	mov    -0x24(%rsp),%eax
  401484:	69 c0 b5 48 00 00    	imul   $0x48b5,%eax,%eax
  40148a:	89 44 24 dc          	mov    %eax,-0x24(%rsp)
  40148e:	8b 44 24 e4          	mov    -0x1c(%rsp),%eax
  401492:	69 c0 a8 2c 00 00    	imul   $0x2ca8,%eax,%eax
  401498:	89 44 24 e4          	mov    %eax,-0x1c(%rsp)
  40149c:	8b 44 24 d8          	mov    -0x28(%rsp),%eax
  4014a0:	69 c0 da ec 00 00    	imul   $0xecda,%eax,%eax
  4014a6:	89 44 24 d8          	mov    %eax,-0x28(%rsp)
  4014aa:	8b 44 24 dc          	mov    -0x24(%rsp),%eax
  4014ae:	69 c0 1b 07 00 00    	imul   $0x71b,%eax,%eax
  4014b4:	89 44 24 dc          	mov    %eax,-0x24(%rsp)
  4014b8:	8b 44 24 ec          	mov    -0x14(%rsp),%eax
  4014bc:	69 c0 d5 87 00 00    	imul   $0x87d5,%eax,%eax
  4014c2:	89 44 24 ec          	mov    %eax,-0x14(%rsp)
  4014c6:	8b 44 24 e0          	mov    -0x20(%rsp),%eax
  4014ca:	69 c0 2b 29 00 00    	imul   $0x292b,%eax,%eax
  4014d0:	89 44 24 e0          	mov    %eax,-0x20(%rsp)
  4014d4:	8b 44 24 cc          	mov    -0x34(%rsp),%eax
  4014d8:	69 c0 52 4d 00 00    	imul   $0x4d52,%eax,%eax
  4014de:	89 44 24 cc          	mov    %eax,-0x34(%rsp)
  4014e2:	8b 44 24 d8          	mov    -0x28(%rsp),%eax
  4014e6:	69 c0 25 68 00 00    	imul   $0x6825,%eax,%eax
  4014ec:	89 44 24 d8          	mov    %eax,-0x28(%rsp)
  4014f0:	8b 44 24 c8          	mov    -0x38(%rsp),%eax
  4014f4:	69 c0 57 e8 00 00    	imul   $0xe857,%eax,%eax
  4014fa:	89 44 24 c8          	mov    %eax,-0x38(%rsp)
  4014fe:	8b 44 24 e4          	mov    -0x1c(%rsp),%eax
  401502:	69 c0 33 cd 00 00    	imul   $0xcd33,%eax,%eax
  401508:	89 44 24 e4          	mov    %eax,-0x1c(%rsp)
  40150c:	8b 44 24 dc          	mov    -0x24(%rsp),%eax
  401510:	69 c0 77 c2 00 00    	imul   $0xc277,%eax,%eax
  401516:	89 44 24 dc          	mov    %eax,-0x24(%rsp)
  40151a:	8b 44 24 dc          	mov    -0x24(%rsp),%eax
  40151e:	69 c0 cf 3b 00 00    	imul   $0x3bcf,%eax,%eax
  401524:	89 44 24 dc          	mov    %eax,-0x24(%rsp)
  401528:	8b 44 24 e8          	mov    -0x18(%rsp),%eax
  40152c:	69 c0 49 b7 00 00    	imul   $0xb749,%eax,%eax
  401532:	89 44 24 e8          	mov    %eax,-0x18(%rsp)
  401536:	8b 44 24 e4          	mov    -0x1c(%rsp),%eax
  40153a:	69 c0 7a d5 00 00    	imul   $0xd57a,%eax,%eax
  401540:	89 44 24 e4          	mov    %eax,-0x1c(%rsp)
  401544:	8b 44 24 e4          	mov    -0x1c(%rsp),%eax
  401548:	69 c0 39 aa 00 00    	imul   $0xaa39,%eax,%eax
  40154e:	89 44 24 e4          	mov    %eax,-0x1c(%rsp)
  401552:	8b 44 24 d4          	mov    -0x2c(%rsp),%eax
  401556:	69 c0 04 d2 00 00    	imul   $0xd204,%eax,%eax
  40155c:	89 44 24 d4          	mov    %eax,-0x2c(%rsp)
  401560:	8b 44 24 ec          	mov    -0x14(%rsp),%eax
  401564:	69 c0 7c 39 00 00    	imul   $0x397c,%eax,%eax
  40156a:	89 44 24 ec          	mov    %eax,-0x14(%rsp)
  40156e:	8b 44 24 ec          	mov    -0x14(%rsp),%eax
  401572:	69 c0 e2 cd 00 00    	imul   $0xcde2,%eax,%eax
  401578:	89 44 24 ec          	mov    %eax,-0x14(%rsp)
  40157c:	8b 44 24 d0          	mov    -0x30(%rsp),%eax
  401580:	69 c0 47 71 00 00    	imul   $0x7147,%eax,%eax
  401586:	89 44 24 d0          	mov    %eax,-0x30(%rsp)
  40158a:	8b 44 24 dc          	mov    -0x24(%rsp),%eax
  40158e:	69 c0 d8 ef 00 00    	imul   $0xefd8,%eax,%eax
  401594:	89 44 24 dc          	mov    %eax,-0x24(%rsp)
  401598:	8b 44 24 ec          	mov    -0x14(%rsp),%eax
  40159c:	69 c0 25 65 00 00    	imul   $0x6525,%eax,%eax
  4015a2:	89 44 24 ec          	mov    %eax,-0x14(%rsp)
  4015a6:	8b 44 24 d4          	mov    -0x2c(%rsp),%eax
  4015aa:	69 c0 11 60 00 00    	imul   $0x6011,%eax,%eax
  4015b0:	89 44 24 d4          	mov    %eax,-0x2c(%rsp)
  4015b4:	8b 44 24 e8          	mov    -0x18(%rsp),%eax
  4015b8:	69 c0 3a d6 00 00    	imul   $0xd63a,%eax,%eax
  4015be:	89 44 24 e8          	mov    %eax,-0x18(%rsp)
  4015c2:	8b 44 24 cc          	mov    -0x34(%rsp),%eax
  4015c6:	69 c0 94 49 00 00    	imul   $0x4994,%eax,%eax
  4015cc:	89 44 24 cc          	mov    %eax,-0x34(%rsp)
  4015d0:	8b 44 24 dc          	mov    -0x24(%rsp),%eax
  4015d4:	69 c0 54 c9 00 00    	imul   $0xc954,%eax,%eax
  4015da:	89 44 24 dc          	mov    %eax,-0x24(%rsp)
  4015de:	8b 44 24 e4          	mov    -0x1c(%rsp),%eax
  4015e2:	69 c0 9d d0 00 00    	imul   $0xd09d,%eax,%eax
  4015e8:	89 44 24 e4          	mov    %eax,-0x1c(%rsp)
  4015ec:	8b 44 24 c8          	mov    -0x38(%rsp),%eax
  4015f0:	69 c0 66 f7 00 00    	imul   $0xf766,%eax,%eax
  4015f6:	89 44 24 c8          	mov    %eax,-0x38(%rsp)
  4015fa:	8b 44 24 e8          	mov    -0x18(%rsp),%eax
  4015fe:	69 c0 d9 89 00 00    	imul   $0x89d9,%eax,%eax
  401604:	89 44 24 e8          	mov    %eax,-0x18(%rsp)
  401608:	8b 44 24 d4          	mov    -0x2c(%rsp),%eax
  40160c:	69 c0 b1 46 00 00    	imul   $0x46b1,%eax,%eax
  401612:	89 44 24 d4          	mov    %eax,-0x2c(%rsp)
  401616:	8b 44 24 d0          	mov    -0x30(%rsp),%eax
  40161a:	69 c0 b1 5f 00 00    	imul   $0x5fb1,%eax,%eax
  401620:	89 44 24 d0          	mov    %eax,-0x30(%rsp)
  401624:	8b 44 24 dc          	mov    -0x24(%rsp),%eax
  401628:	69 c0 e3 d2 00 00    	imul   $0xd2e3,%eax,%eax
  40162e:	89 44 24 dc          	mov    %eax,-0x24(%rsp)
  401632:	8b 44 24 dc          	mov    -0x24(%rsp),%eax
  401636:	69 c0 d9 e3 00 00    	imul   $0xe3d9,%eax,%eax
  40163c:	89 44 24 dc          	mov    %eax,-0x24(%rsp)
  401640:	8b 44 24 e8          	mov    -0x18(%rsp),%eax
  401644:	69 c0 62 30 00 00    	imul   $0x3062,%eax,%eax
  40164a:	89 44 24 e8          	mov    %eax,-0x18(%rsp)
  40164e:	8b 44 24 d0          	mov    -0x30(%rsp),%eax
  401652:	69 c0 b6 32 00 00    	imul   $0x32b6,%eax,%eax
  401658:	89 44 24 d0          	mov    %eax,-0x30(%rsp)
  40165c:	8b 44 24 c8          	mov    -0x38(%rsp),%eax
  401660:	69 c0 ba 86 00 00    	imul   $0x86ba,%eax,%eax
  401666:	89 44 24 c8          	mov    %eax,-0x38(%rsp)
  40166a:	8b 44 24 d4          	mov    -0x2c(%rsp),%eax
  40166e:	69 c0 c7 9a 00 00    	imul   $0x9ac7,%eax,%eax
  401674:	89 44 24 d4          	mov    %eax,-0x2c(%rsp)
  401678:	8b 44 24 e8          	mov    -0x18(%rsp),%eax
  40167c:	69 c0 91 3b 00 00    	imul   $0x3b91,%eax,%eax
  401682:	89 44 24 e8          	mov    %eax,-0x18(%rsp)
  401686:	8b 44 24 d0          	mov    -0x30(%rsp),%eax
  40168a:	69 c0 57 9e 00 00    	imul   $0x9e57,%eax,%eax
  401690:	89 44 24 d0          	mov    %eax,-0x30(%rsp)
  401694:	8b 44 24 e4          	mov    -0x1c(%rsp),%eax
  401698:	69 c0 0e c3 00 00    	imul   $0xc30e,%eax,%eax
  40169e:	89 44 24 e4          	mov    %eax,-0x1c(%rsp)
  4016a2:	8b 44 24 e4          	mov    -0x1c(%rsp),%eax
  4016a6:	69 c0 5d d0 00 00    	imul   $0xd05d,%eax,%eax
  4016ac:	89 44 24 e4          	mov    %eax,-0x1c(%rsp)
  4016b0:	8b 44 24 d8          	mov    -0x28(%rsp),%eax
  4016b4:	69 c0 b2 fe 00 00    	imul   $0xfeb2,%eax,%eax
  4016ba:	89 44 24 d8          	mov    %eax,-0x28(%rsp)
  4016be:	8b 44 24 dc          	mov    -0x24(%rsp),%eax
  4016c2:	69 c0 2e 18 00 00    	imul   $0x182e,%eax,%eax
  4016c8:	89 44 24 dc          	mov    %eax,-0x24(%rsp)
  4016cc:	8b 44 24 d4          	mov    -0x2c(%rsp),%eax
  4016d0:	69 c0 67 ad 00 00    	imul   $0xad67,%eax,%eax
  4016d6:	89 44 24 d4          	mov    %eax,-0x2c(%rsp)
  4016da:	8b 44 24 e0          	mov    -0x20(%rsp),%eax
  4016de:	69 c0 c9 a4 00 00    	imul   $0xa4c9,%eax,%eax
  4016e4:	89 44 24 e0          	mov    %eax,-0x20(%rsp)
  4016e8:	8b 44 24 d0          	mov    -0x30(%rsp),%eax
  4016ec:	69 c0 5b 01 00 00    	imul   $0x15b,%eax,%eax
  4016f2:	89 44 24 d0          	mov    %eax,-0x30(%rsp)
  4016f6:	8b 44 24 c8          	mov    -0x38(%rsp),%eax
  4016fa:	69 c0 02 e5 00 00    	imul   $0xe502,%eax,%eax
  401700:	89 44 24 c8          	mov    %eax,-0x38(%rsp)
  401704:	8b 44 24 e0          	mov    -0x20(%rsp),%eax
  401708:	69 c0 2f 36 00 00    	imul   $0x362f,%eax,%eax
  40170e:	89 44 24 e0          	mov    %eax,-0x20(%rsp)
  401712:	8b 44 24 e0          	mov    -0x20(%rsp),%eax
  401716:	69 c0 9d e0 00 00    	imul   $0xe09d,%eax,%eax
  40171c:	89 44 24 e0          	mov    %eax,-0x20(%rsp)
  401720:	8b 44 24 d0          	mov    -0x30(%rsp),%eax
  401724:	69 c0 98 7a 00 00    	imul   $0x7a98,%eax,%eax
  40172a:	89 44 24 d0          	mov    %eax,-0x30(%rsp)
  40172e:	8b 44 24 e8          	mov    -0x18(%rsp),%eax
  401732:	69 c0 3c 08 00 00    	imul   $0x83c,%eax,%eax
  401738:	89 44 24 e8          	mov    %eax,-0x18(%rsp)
  40173c:	8b 44 24 dc          	mov    -0x24(%rsp),%eax
  401740:	69 c0 e2 35 00 00    	imul   $0x35e2,%eax,%eax
  401746:	89 44 24 dc          	mov    %eax,-0x24(%rsp)
  40174a:	8b 44 24 d8          	mov    -0x28(%rsp),%eax
  40174e:	69 c0 31 ed 00 00    	imul   $0xed31,%eax,%eax
  401754:	89 44 24 d8          	mov    %eax,-0x28(%rsp)
  401758:	8b 44 24 d0          	mov    -0x30(%rsp),%eax
  40175c:	69 c0 db 9d 00 00    	imul   $0x9ddb,%eax,%eax
  401762:	89 44 24 d0          	mov    %eax,-0x30(%rsp)
  401766:	8b 44 24 d4          	mov    -0x2c(%rsp),%eax
  40176a:	69 c0 40 83 00 00    	imul   $0x8340,%eax,%eax
  401770:	89 44 24 d4          	mov    %eax,-0x2c(%rsp)
  401774:	8b 44 24 cc          	mov    -0x34(%rsp),%eax
  401778:	69 c0 73 73 00 00    	imul   $0x7373,%eax,%eax
  40177e:	89 44 24 cc          	mov    %eax,-0x34(%rsp)
  401782:	8b 44 24 e0          	mov    -0x20(%rsp),%eax
  401786:	69 c0 4c ed 00 00    	imul   $0xed4c,%eax,%eax
  40178c:	89 44 24 e0          	mov    %eax,-0x20(%rsp)
  401790:	8b 44 24 ec          	mov    -0x14(%rsp),%eax
  401794:	69 c0 98 f4 00 00    	imul   $0xf498,%eax,%eax
  40179a:	89 44 24 ec          	mov    %eax,-0x14(%rsp)
  40179e:	8b 44 24 d4          	mov    -0x2c(%rsp),%eax
  4017a2:	69 c0 3f 68 00 00    	imul   $0x683f,%eax,%eax
  4017a8:	89 44 24 d4          	mov    %eax,-0x2c(%rsp)
  4017ac:	8b 44 24 e8          	mov    -0x18(%rsp),%eax
  4017b0:	69 c0 82 a7 00 00    	imul   $0xa782,%eax,%eax
  4017b6:	89 44 24 e8          	mov    %eax,-0x18(%rsp)
  4017ba:	8b 44 24 d4          	mov    -0x2c(%rsp),%eax
  4017be:	69 c0 17 96 00 00    	imul   $0x9617,%eax,%eax
  4017c4:	89 44 24 d4          	mov    %eax,-0x2c(%rsp)
  4017c8:	8b 44 24 cc          	mov    -0x34(%rsp),%eax
  4017cc:	69 c0 82 11 00 00    	imul   $0x1182,%eax,%eax
  4017d2:	89 44 24 cc          	mov    %eax,-0x34(%rsp)
  4017d6:	8b 44 24 ec          	mov    -0x14(%rsp),%eax
  4017da:	69 c0 1b 7d 00 00    	imul   $0x7d1b,%eax,%eax
  4017e0:	89 44 24 ec          	mov    %eax,-0x14(%rsp)
  4017e4:	8b 44 24 cc          	mov    -0x34(%rsp),%eax
  4017e8:	69 c0 f5 43 00 00    	imul   $0x43f5,%eax,%eax
  4017ee:	89 44 24 cc          	mov    %eax,-0x34(%rsp)
  4017f2:	8b 44 24 dc          	mov    -0x24(%rsp),%eax
  4017f6:	69 c0 43 ae 00 00    	imul   $0xae43,%eax,%eax
  4017fc:	89 44 24 dc          	mov    %eax,-0x24(%rsp)
  401800:	8b 44 24 d4          	mov    -0x2c(%rsp),%eax
  401804:	69 c0 0d 71 00 00    	imul   $0x710d,%eax,%eax
  40180a:	89 44 24 d4          	mov    %eax,-0x2c(%rsp)
  40180e:	8b 44 24 ec          	mov    -0x14(%rsp),%eax
  401812:	69 c0 df bf 00 00    	imul   $0xbfdf,%eax,%eax
  401818:	89 44 24 ec          	mov    %eax,-0x14(%rsp)
  40181c:	8b 44 24 ec          	mov    -0x14(%rsp),%eax
  401820:	69 c0 82 59 00 00    	imul   $0x5982,%eax,%eax
  401826:	89 44 24 ec          	mov    %eax,-0x14(%rsp)
  40182a:	8b 44 24 dc          	mov    -0x24(%rsp),%eax
  40182e:	69 c0 63 18 00 00    	imul   $0x1863,%eax,%eax
  401834:	89 44 24 dc          	mov    %eax,-0x24(%rsp)
  401838:	8b 44 24 d4          	mov    -0x2c(%rsp),%eax
  40183c:	69 c0 99 38 00 00    	imul   $0x3899,%eax,%eax
  401842:	89 44 24 d4          	mov    %eax,-0x2c(%rsp)
  401846:	8b 44 24 dc          	mov    -0x24(%rsp),%eax
  40184a:	69 c0 47 58 00 00    	imul   $0x5847,%eax,%eax
  401850:	89 44 24 dc          	mov    %eax,-0x24(%rsp)
  401854:	8b 44 24 cc          	mov    -0x34(%rsp),%eax
  401858:	69 c0 41 ef 00 00    	imul   $0xef41,%eax,%eax
  40185e:	89 44 24 cc          	mov    %eax,-0x34(%rsp)
  401862:	8b 44 24 d4          	mov    -0x2c(%rsp),%eax
  401866:	69 c0 33 1e 00 00    	imul   $0x1e33,%eax,%eax
  40186c:	89 44 24 d4          	mov    %eax,-0x2c(%rsp)
  401870:	8b 44 24 d8          	mov    -0x28(%rsp),%eax
  401874:	69 c0 0e 4b 00 00    	imul   $0x4b0e,%eax,%eax
  40187a:	89 44 24 d8          	mov    %eax,-0x28(%rsp)
  40187e:	8b 44 24 e4          	mov    -0x1c(%rsp),%eax
  401882:	69 c0 d8 85 00 00    	imul   $0x85d8,%eax,%eax
  401888:	89 44 24 e4          	mov    %eax,-0x1c(%rsp)
  40188c:	8b 44 24 e4          	mov    -0x1c(%rsp),%eax
  401890:	69 c0 7a 93 00 00    	imul   $0x937a,%eax,%eax
  401896:	89 44 24 e4          	mov    %eax,-0x1c(%rsp)
  40189a:	8b 44 24 d8          	mov    -0x28(%rsp),%eax
  40189e:	69 c0 6e 9b 00 00    	imul   $0x9b6e,%eax,%eax
  4018a4:	89 44 24 d8          	mov    %eax,-0x28(%rsp)
  4018a8:	8b 44 24 e0          	mov    -0x20(%rsp),%eax
  4018ac:	69 c0 08 97 00 00    	imul   $0x9708,%eax,%eax
  4018b2:	89 44 24 e0          	mov    %eax,-0x20(%rsp)
  4018b6:	8b 44 24 e8          	mov    -0x18(%rsp),%eax
  4018ba:	69 c0 ad ec 00 00    	imul   $0xecad,%eax,%eax
  4018c0:	89 44 24 e8          	mov    %eax,-0x18(%rsp)
  4018c4:	8b 44 24 cc          	mov    -0x34(%rsp),%eax
  4018c8:	69 c0 43 76 00 00    	imul   $0x7643,%eax,%eax
  4018ce:	89 44 24 cc          	mov    %eax,-0x34(%rsp)
  4018d2:	8b 44 24 d0          	mov    -0x30(%rsp),%eax
  4018d6:	69 c0 8b 99 00 00    	imul   $0x998b,%eax,%eax
  4018dc:	89 44 24 d0          	mov    %eax,-0x30(%rsp)
  4018e0:	8b 44 24 cc          	mov    -0x34(%rsp),%eax
  4018e4:	69 c0 70 51 00 00    	imul   $0x5170,%eax,%eax
  4018ea:	89 44 24 cc          	mov    %eax,-0x34(%rsp)
  4018ee:	ba 00 00 00 00       	mov    $0x0,%edx
  4018f3:	b8 00 00 00 00       	mov    $0x0,%eax
  4018f8:	eb 0b                	jmp    401905 <scramble+0x566>
  4018fa:	89 d1                	mov    %edx,%ecx
  4018fc:	8b 4c 8c c8          	mov    -0x38(%rsp,%rcx,4),%ecx
  401900:	01 c8                	add    %ecx,%eax
  401902:	83 c2 01             	add    $0x1,%edx
  401905:	83 fa 09             	cmp    $0x9,%edx
  401908:	76 f0                	jbe    4018fa <scramble+0x55b>
  40190a:	f3 c3                	repz retq 

000000000040190c <getbuf>:
  40190c:	48 83 ec 28          	sub    $0x28,%rsp
  401910:	48 89 e7             	mov    %rsp,%rdi
  401913:	e8 9c 03 00 00       	callq  401cb4 <Gets>
  401918:	b8 01 00 00 00       	mov    $0x1,%eax
  40191d:	48 83 c4 28          	add    $0x28,%rsp
  401921:	c3                   	retq   

0000000000401922 <touch1>:
  401922:	48 83 ec 08          	sub    $0x8,%rsp
  401926:	c7 05 ec 3b 20 00 01 	movl   $0x1,0x203bec(%rip)        # 60551c <vlevel>
  40192d:	00 00 00 
  401930:	bf 36 33 40 00       	mov    $0x403336,%edi
  401935:	e8 a6 f3 ff ff       	callq  400ce0 <puts@plt>
  40193a:	bf 01 00 00 00       	mov    $0x1,%edi
  40193f:	e8 b5 05 00 00       	callq  401ef9 <validate>
  401944:	bf 00 00 00 00       	mov    $0x0,%edi
  401949:	e8 22 f5 ff ff       	callq  400e70 <exit@plt>

000000000040194e <touch2>:
  40194e:	48 83 ec 08          	sub    $0x8,%rsp
  401952:	89 fa                	mov    %edi,%edx
  401954:	c7 05 be 3b 20 00 02 	movl   $0x2,0x203bbe(%rip)        # 60551c <vlevel>
  40195b:	00 00 00 
  40195e:	39 3d c0 3b 20 00    	cmp    %edi,0x203bc0(%rip)        # 605524 <cookie>
  401964:	75 20                	jne    401986 <touch2+0x38>
  401966:	be 58 33 40 00       	mov    $0x403358,%esi
  40196b:	bf 01 00 00 00       	mov    $0x1,%edi
  401970:	b8 00 00 00 00       	mov    $0x0,%eax
  401975:	e8 a6 f4 ff ff       	callq  400e20 <__printf_chk@plt>
  40197a:	bf 02 00 00 00       	mov    $0x2,%edi
  40197f:	e8 75 05 00 00       	callq  401ef9 <validate>
  401984:	eb 1e                	jmp    4019a4 <touch2+0x56>
  401986:	be 80 33 40 00       	mov    $0x403380,%esi
  40198b:	bf 01 00 00 00       	mov    $0x1,%edi
  401990:	b8 00 00 00 00       	mov    $0x0,%eax
  401995:	e8 86 f4 ff ff       	callq  400e20 <__printf_chk@plt>
  40199a:	bf 02 00 00 00       	mov    $0x2,%edi
  40199f:	e8 17 06 00 00       	callq  401fbb <fail>
  4019a4:	bf 00 00 00 00       	mov    $0x0,%edi
  4019a9:	e8 c2 f4 ff ff       	callq  400e70 <exit@plt>

00000000004019ae <hexmatch>:
  4019ae:	41 54                	push   %r12
  4019b0:	55                   	push   %rbp
  4019b1:	53                   	push   %rbx
  4019b2:	48 83 c4 80          	add    $0xffffffffffffff80,%rsp
  4019b6:	89 fd                	mov    %edi,%ebp
  4019b8:	48 89 f3             	mov    %rsi,%rbx
  4019bb:	64 48 8b 04 25 28 00 	mov    %fs:0x28,%rax
  4019c2:	00 00 
  4019c4:	48 89 44 24 78       	mov    %rax,0x78(%rsp)
  4019c9:	31 c0                	xor    %eax,%eax
  4019cb:	e8 10 f4 ff ff       	callq  400de0 <random@plt>
  4019d0:	48 89 c1             	mov    %rax,%rcx
  4019d3:	48 ba 0b d7 a3 70 3d 	movabs $0xa3d70a3d70a3d70b,%rdx
  4019da:	0a d7 a3 
  4019dd:	48 f7 ea             	imul   %rdx
  4019e0:	48 01 ca             	add    %rcx,%rdx
  4019e3:	48 c1 fa 06          	sar    $0x6,%rdx
  4019e7:	48 89 c8             	mov    %rcx,%rax
  4019ea:	48 c1 f8 3f          	sar    $0x3f,%rax
  4019ee:	48 29 c2             	sub    %rax,%rdx
  4019f1:	48 8d 04 92          	lea    (%rdx,%rdx,4),%rax
  4019f5:	48 8d 14 80          	lea    (%rax,%rax,4),%rdx
  4019f9:	48 8d 04 95 00 00 00 	lea    0x0(,%rdx,4),%rax
  401a00:	00 
  401a01:	48 29 c1             	sub    %rax,%rcx
  401a04:	4c 8d 24 0c          	lea    (%rsp,%rcx,1),%r12
  401a08:	41 89 e8             	mov    %ebp,%r8d
  401a0b:	b9 53 33 40 00       	mov    $0x403353,%ecx
  401a10:	48 c7 c2 ff ff ff ff 	mov    $0xffffffffffffffff,%rdx
  401a17:	be 01 00 00 00       	mov    $0x1,%esi
  401a1c:	4c 89 e7             	mov    %r12,%rdi
  401a1f:	b8 00 00 00 00       	mov    $0x0,%eax
  401a24:	e8 77 f4 ff ff       	callq  400ea0 <__sprintf_chk@plt>
  401a29:	ba 09 00 00 00       	mov    $0x9,%edx
  401a2e:	4c 89 e6             	mov    %r12,%rsi
  401a31:	48 89 df             	mov    %rbx,%rdi
  401a34:	e8 87 f2 ff ff       	callq  400cc0 <strncmp@plt>
  401a39:	85 c0                	test   %eax,%eax
  401a3b:	0f 94 c0             	sete   %al
  401a3e:	48 8b 5c 24 78       	mov    0x78(%rsp),%rbx
  401a43:	64 48 33 1c 25 28 00 	xor    %fs:0x28,%rbx
  401a4a:	00 00 
  401a4c:	74 05                	je     401a53 <hexmatch+0xa5>
  401a4e:	e8 ad f2 ff ff       	callq  400d00 <__stack_chk_fail@plt>
  401a53:	0f b6 c0             	movzbl %al,%eax
  401a56:	48 83 ec 80          	sub    $0xffffffffffffff80,%rsp
  401a5a:	5b                   	pop    %rbx
  401a5b:	5d                   	pop    %rbp
  401a5c:	41 5c                	pop    %r12
  401a5e:	c3                   	retq   

0000000000401a5f <touch3>:
  401a5f:	53                   	push   %rbx
  401a60:	48 89 fb             	mov    %rdi,%rbx
  401a63:	c7 05 af 3a 20 00 03 	movl   $0x3,0x203aaf(%rip)        # 60551c <vlevel>
  401a6a:	00 00 00 
  401a6d:	48 89 fe             	mov    %rdi,%rsi
  401a70:	8b 3d ae 3a 20 00    	mov    0x203aae(%rip),%edi        # 605524 <cookie>
  401a76:	e8 33 ff ff ff       	callq  4019ae <hexmatch>
  401a7b:	85 c0                	test   %eax,%eax
  401a7d:	74 23                	je     401aa2 <touch3+0x43>
  401a7f:	48 89 da             	mov    %rbx,%rdx
  401a82:	be a8 33 40 00       	mov    $0x4033a8,%esi
  401a87:	bf 01 00 00 00       	mov    $0x1,%edi
  401a8c:	b8 00 00 00 00       	mov    $0x0,%eax
  401a91:	e8 8a f3 ff ff       	callq  400e20 <__printf_chk@plt>
  401a96:	bf 03 00 00 00       	mov    $0x3,%edi
  401a9b:	e8 59 04 00 00       	callq  401ef9 <validate>
  401aa0:	eb 21                	jmp    401ac3 <touch3+0x64>
  401aa2:	48 89 da             	mov    %rbx,%rdx
  401aa5:	be d0 33 40 00       	mov    $0x4033d0,%esi
  401aaa:	bf 01 00 00 00       	mov    $0x1,%edi
  401aaf:	b8 00 00 00 00       	mov    $0x0,%eax
  401ab4:	e8 67 f3 ff ff       	callq  400e20 <__printf_chk@plt>
  401ab9:	bf 03 00 00 00       	mov    $0x3,%edi
  401abe:	e8 f8 04 00 00       	callq  401fbb <fail>
  401ac3:	bf 00 00 00 00       	mov    $0x0,%edi
  401ac8:	e8 a3 f3 ff ff       	callq  400e70 <exit@plt>

0000000000401acd <test>:
  401acd:	48 83 ec 08          	sub    $0x8,%rsp
  401ad1:	b8 00 00 00 00       	mov    $0x0,%eax
  401ad6:	e8 31 fe ff ff       	callq  40190c <getbuf>
  401adb:	89 c2                	mov    %eax,%edx
  401add:	be f8 33 40 00       	mov    $0x4033f8,%esi
  401ae2:	bf 01 00 00 00       	mov    $0x1,%edi
  401ae7:	b8 00 00 00 00       	mov    $0x0,%eax
  401aec:	e8 2f f3 ff ff       	callq  400e20 <__printf_chk@plt>
  401af1:	48 83 c4 08          	add    $0x8,%rsp
  401af5:	c3                   	retq   

0000000000401af6 <start_farm>:
  401af6:	b8 01 00 00 00       	mov    $0x1,%eax
  401afb:	c3                   	retq   

0000000000401afc <getval_409>:
  401afc:	b8 c3 8e 49 58       	mov    $0x58498ec3,%eax
  401b01:	c3                   	retq   

0000000000401b02 <setval_292>:
  401b02:	c7 07 58 90 90 90    	movl   $0x90909058,(%rdi)
  401b08:	c3                   	retq   

0000000000401b09 <addval_469>:
  401b09:	8d 87 48 c9 c7 c3    	lea    -0x3c3836b8(%rdi),%eax
  401b0f:	c3                   	retq   

0000000000401b10 <getval_170>:
  401b10:	b8 51 58 91 90       	mov    $0x90915851,%eax
  401b15:	c3                   	retq   

0000000000401b16 <setval_303>:
  401b16:	c7 07 48 89 c7 90    	movl   $0x90c78948,(%rdi)
  401b1c:	c3                   	retq   

0000000000401b1d <setval_336>:
  401b1d:	c7 07 48 89 c7 c3    	movl   $0xc3c78948,(%rdi)
  401b23:	c3                   	retq   

0000000000401b24 <setval_114>:
  401b24:	c7 07 69 58 94 90    	movl   $0x90945869,(%rdi)
  401b2a:	c3                   	retq   

0000000000401b2b <setval_111>:
  401b2b:	c7 07 48 89 c7 c1    	movl   $0xc1c78948,(%rdi)
  401b31:	c3                   	retq   

0000000000401b32 <mid_farm>:
  401b32:	b8 01 00 00 00       	mov    $0x1,%eax
  401b37:	c3                   	retq   

0000000000401b38 <add_xy>:
  401b38:	48 8d 04 37          	lea    (%rdi,%rsi,1),%rax
  401b3c:	c3                   	retq   

0000000000401b3d <addval_222>:
  401b3d:	8d 87 99 d6 20 c9    	lea    -0x36df2967(%rdi),%eax
  401b43:	c3                   	retq   

0000000000401b44 <getval_444>:
  401b44:	b8 99 c1 38 db       	mov    $0xdb38c199,%eax
  401b49:	c3                   	retq   

0000000000401b4a <addval_284>:
  401b4a:	8d 87 48 89 e0 91    	lea    -0x6e1f76b8(%rdi),%eax
  401b50:	c3                   	retq   

0000000000401b51 <getval_245>:
  401b51:	b8 99 c1 84 d2       	mov    $0xd284c199,%eax
  401b56:	c3                   	retq   

0000000000401b57 <setval_497>:
  401b57:	c7 07 c9 ca 38 db    	movl   $0xdb38cac9,(%rdi)
  401b5d:	c3                   	retq   

0000000000401b5e <addval_347>:
  401b5e:	8d 87 89 d6 08 db    	lea    -0x24f72977(%rdi),%eax
  401b64:	c3                   	retq   

0000000000401b65 <addval_223>:
  401b65:	8d 87 00 ed 89 c1    	lea    -0x3e761300(%rdi),%eax
  401b6b:	c3                   	retq   

0000000000401b6c <getval_430>:
  401b6c:	b8 48 89 e0 91       	mov    $0x91e08948,%eax
  401b71:	c3                   	retq   

0000000000401b72 <addval_442>:
  401b72:	8d 87 88 d6 c3 92    	lea    -0x6d3c2978(%rdi),%eax
  401b78:	c3                   	retq   

0000000000401b79 <setval_172>:
  401b79:	c7 07 48 89 e0 c3    	movl   $0xc3e08948,(%rdi)
  401b7f:	c3                   	retq   

0000000000401b80 <getval_208>:
  401b80:	b8 a9 c1 84 c0       	mov    $0xc084c1a9,%eax
  401b85:	c3                   	retq   

0000000000401b86 <getval_127>:
  401b86:	b8 89 c1 90 c3       	mov    $0xc390c189,%eax
  401b8b:	c3                   	retq   

0000000000401b8c <getval_186>:
  401b8c:	b8 48 89 e0 94       	mov    $0x94e08948,%eax
  401b91:	c3                   	retq   

0000000000401b92 <addval_391>:
  401b92:	8d 87 4a 89 e0 c3    	lea    -0x3c1f76b6(%rdi),%eax
  401b98:	c3                   	retq   

0000000000401b99 <addval_343>:
  401b99:	8d 87 88 c1 08 db    	lea    -0x24f73e78(%rdi),%eax
  401b9f:	c3                   	retq   

0000000000401ba0 <getval_431>:
  401ba0:	b8 48 89 e0 c3       	mov    $0xc3e08948,%eax
  401ba5:	c3                   	retq   

0000000000401ba6 <setval_475>:
  401ba6:	c7 07 a9 c1 20 c0    	movl   $0xc020c1a9,(%rdi)
  401bac:	c3                   	retq   

0000000000401bad <getval_438>:
  401bad:	b8 69 89 c1 c1       	mov    $0xc1c18969,%eax
  401bb2:	c3                   	retq   

0000000000401bb3 <getval_271>:
  401bb3:	b8 89 ca 38 d2       	mov    $0xd238ca89,%eax
  401bb8:	c3                   	retq   

0000000000401bb9 <getval_318>:
  401bb9:	b8 8d ca 90 90       	mov    $0x9090ca8d,%eax
  401bbe:	c3                   	retq   

0000000000401bbf <addval_174>:
  401bbf:	8d 87 89 d6 c7 a5    	lea    -0x5a382977(%rdi),%eax
  401bc5:	c3                   	retq   

0000000000401bc6 <getval_344>:
  401bc6:	b8 89 d6 48 c0       	mov    $0xc048d689,%eax
  401bcb:	c3                   	retq   

0000000000401bcc <getval_324>:
  401bcc:	b8 05 48 81 e0       	mov    $0xe0814805,%eax
  401bd1:	c3                   	retq   

0000000000401bd2 <addval_128>:
  401bd2:	8d 87 89 ca 20 db    	lea    -0x24df3577(%rdi),%eax
  401bd8:	c3                   	retq   

0000000000401bd9 <getval_254>:
  401bd9:	b8 8d ca 84 c9       	mov    $0xc984ca8d,%eax
  401bde:	c3                   	retq   

0000000000401bdf <setval_135>:
  401bdf:	c7 07 48 89 e0 c1    	movl   $0xc1e08948,(%rdi)
  401be5:	c3                   	retq   

0000000000401be6 <getval_410>:
  401be6:	b8 89 ca 28 d2       	mov    $0xd228ca89,%eax
  401beb:	c3                   	retq   

0000000000401bec <setval_398>:
  401bec:	c7 07 89 d6 18 db    	movl   $0xdb18d689,(%rdi)
  401bf2:	c3                   	retq   

0000000000401bf3 <addval_289>:
  401bf3:	8d 87 89 ca 90 c2    	lea    -0x3d6f3577(%rdi),%eax
  401bf9:	c3                   	retq   

0000000000401bfa <getval_275>:
  401bfa:	b8 3c 89 d6 c3       	mov    $0xc3d6893c,%eax
  401bff:	c3                   	retq   

0000000000401c00 <addval_478>:
  401c00:	8d 87 89 ca 90 c2    	lea    -0x3d6f3577(%rdi),%eax
  401c06:	c3                   	retq   

0000000000401c07 <addval_330>:
  401c07:	8d 87 88 d6 38 db    	lea    -0x24c72978(%rdi),%eax
  401c0d:	c3                   	retq   

0000000000401c0e <end_farm>:
  401c0e:	b8 01 00 00 00       	mov    $0x1,%eax
  401c13:	c3                   	retq   

0000000000401c14 <save_char>:
  401c14:	8b 05 2a 45 20 00    	mov    0x20452a(%rip),%eax        # 606144 <gets_cnt>
  401c1a:	3d ff 03 00 00       	cmp    $0x3ff,%eax
  401c1f:	7f 49                	jg     401c6a <save_char+0x56>
  401c21:	8d 14 40             	lea    (%rax,%rax,2),%edx
  401c24:	89 f9                	mov    %edi,%ecx
  401c26:	c0 e9 04             	shr    $0x4,%cl
  401c29:	83 e1 0f             	and    $0xf,%ecx
  401c2c:	0f b6 b1 20 37 40 00 	movzbl 0x403720(%rcx),%esi
  401c33:	48 63 ca             	movslq %edx,%rcx
  401c36:	40 88 b1 40 55 60 00 	mov    %sil,0x605540(%rcx)
  401c3d:	8d 4a 01             	lea    0x1(%rdx),%ecx
  401c40:	83 e7 0f             	and    $0xf,%edi
  401c43:	0f b6 b7 20 37 40 00 	movzbl 0x403720(%rdi),%esi
  401c4a:	48 63 c9             	movslq %ecx,%rcx
  401c4d:	40 88 b1 40 55 60 00 	mov    %sil,0x605540(%rcx)
  401c54:	83 c2 02             	add    $0x2,%edx
  401c57:	48 63 d2             	movslq %edx,%rdx
  401c5a:	c6 82 40 55 60 00 20 	movb   $0x20,0x605540(%rdx)
  401c61:	83 c0 01             	add    $0x1,%eax
  401c64:	89 05 da 44 20 00    	mov    %eax,0x2044da(%rip)        # 606144 <gets_cnt>
  401c6a:	f3 c3                	repz retq 

0000000000401c6c <save_term>:
  401c6c:	8b 05 d2 44 20 00    	mov    0x2044d2(%rip),%eax        # 606144 <gets_cnt>
  401c72:	8d 04 40             	lea    (%rax,%rax,2),%eax
  401c75:	48 98                	cltq   
  401c77:	c6 80 40 55 60 00 00 	movb   $0x0,0x605540(%rax)
  401c7e:	c3                   	retq   

0000000000401c7f <check_fail>:
  401c7f:	48 83 ec 08          	sub    $0x8,%rsp
  401c83:	0f be 15 be 44 20 00 	movsbl 0x2044be(%rip),%edx        # 606148 <target_prefix>
  401c8a:	41 b8 40 55 60 00    	mov    $0x605540,%r8d
  401c90:	8b 0d 82 38 20 00    	mov    0x203882(%rip),%ecx        # 605518 <check_level>
  401c96:	be 1b 34 40 00       	mov    $0x40341b,%esi
  401c9b:	bf 01 00 00 00       	mov    $0x1,%edi
  401ca0:	b8 00 00 00 00       	mov    $0x0,%eax
  401ca5:	e8 76 f1 ff ff       	callq  400e20 <__printf_chk@plt>
  401caa:	bf 01 00 00 00       	mov    $0x1,%edi
  401caf:	e8 bc f1 ff ff       	callq  400e70 <exit@plt>

0000000000401cb4 <Gets>:
  401cb4:	41 54                	push   %r12
  401cb6:	55                   	push   %rbp
  401cb7:	53                   	push   %rbx
  401cb8:	49 89 fc             	mov    %rdi,%r12
  401cbb:	c7 05 7f 44 20 00 00 	movl   $0x0,0x20447f(%rip)        # 606144 <gets_cnt>
  401cc2:	00 00 00 
  401cc5:	48 89 fb             	mov    %rdi,%rbx
  401cc8:	eb 11                	jmp    401cdb <Gets+0x27>
  401cca:	48 8d 6b 01          	lea    0x1(%rbx),%rbp
  401cce:	88 03                	mov    %al,(%rbx)
  401cd0:	0f b6 f8             	movzbl %al,%edi
  401cd3:	e8 3c ff ff ff       	callq  401c14 <save_char>
  401cd8:	48 89 eb             	mov    %rbp,%rbx
  401cdb:	48 8b 3d 2e 38 20 00 	mov    0x20382e(%rip),%rdi        # 605510 <infile>
  401ce2:	e8 09 f1 ff ff       	callq  400df0 <_IO_getc@plt>
  401ce7:	83 f8 ff             	cmp    $0xffffffff,%eax
  401cea:	74 05                	je     401cf1 <Gets+0x3d>
  401cec:	83 f8 0a             	cmp    $0xa,%eax
  401cef:	75 d9                	jne    401cca <Gets+0x16>
  401cf1:	c6 03 00             	movb   $0x0,(%rbx)
  401cf4:	b8 00 00 00 00       	mov    $0x0,%eax
  401cf9:	e8 6e ff ff ff       	callq  401c6c <save_term>
  401cfe:	4c 89 e0             	mov    %r12,%rax
  401d01:	5b                   	pop    %rbx
  401d02:	5d                   	pop    %rbp
  401d03:	41 5c                	pop    %r12
  401d05:	c3                   	retq   

0000000000401d06 <notify_server>:
  401d06:	53                   	push   %rbx
  401d07:	48 81 ec 10 40 00 00 	sub    $0x4010,%rsp
  401d0e:	64 48 8b 04 25 28 00 	mov    %fs:0x28,%rax
  401d15:	00 00 
  401d17:	48 89 84 24 08 40 00 	mov    %rax,0x4008(%rsp)
  401d1e:	00 
  401d1f:	31 c0                	xor    %eax,%eax
  401d21:	83 3d 00 38 20 00 00 	cmpl   $0x0,0x203800(%rip)        # 605528 <is_checker>
  401d28:	0f 85 aa 01 00 00    	jne    401ed8 <notify_server+0x1d2>
  401d2e:	89 fb                	mov    %edi,%ebx
  401d30:	8b 05 0e 44 20 00    	mov    0x20440e(%rip),%eax        # 606144 <gets_cnt>
  401d36:	83 c0 64             	add    $0x64,%eax
  401d39:	3d 00 20 00 00       	cmp    $0x2000,%eax
  401d3e:	7e 1e                	jle    401d5e <notify_server+0x58>
  401d40:	be 50 35 40 00       	mov    $0x403550,%esi
  401d45:	bf 01 00 00 00       	mov    $0x1,%edi
  401d4a:	b8 00 00 00 00       	mov    $0x0,%eax
  401d4f:	e8 cc f0 ff ff       	callq  400e20 <__printf_chk@plt>
  401d54:	bf 01 00 00 00       	mov    $0x1,%edi
  401d59:	e8 12 f1 ff ff       	callq  400e70 <exit@plt>
  401d5e:	0f be 05 e3 43 20 00 	movsbl 0x2043e3(%rip),%eax        # 606148 <target_prefix>
  401d65:	83 3d 3c 37 20 00 00 	cmpl   $0x0,0x20373c(%rip)        # 6054a8 <notify>
  401d6c:	74 08                	je     401d76 <notify_server+0x70>
  401d6e:	8b 15 ac 37 20 00    	mov    0x2037ac(%rip),%edx        # 605520 <authkey>
  401d74:	eb 05                	jmp    401d7b <notify_server+0x75>
  401d76:	ba ff ff ff ff       	mov    $0xffffffff,%edx
  401d7b:	85 db                	test   %ebx,%ebx
  401d7d:	74 08                	je     401d87 <notify_server+0x81>
  401d7f:	41 b9 31 34 40 00    	mov    $0x403431,%r9d
  401d85:	eb 06                	jmp    401d8d <notify_server+0x87>
  401d87:	41 b9 36 34 40 00    	mov    $0x403436,%r9d
  401d8d:	68 40 55 60 00       	pushq  $0x605540
  401d92:	56                   	push   %rsi
  401d93:	50                   	push   %rax
  401d94:	52                   	push   %rdx
  401d95:	44 8b 05 cc 33 20 00 	mov    0x2033cc(%rip),%r8d        # 605168 <target_id>
  401d9c:	b9 3b 34 40 00       	mov    $0x40343b,%ecx
  401da1:	ba 00 20 00 00       	mov    $0x2000,%edx
  401da6:	be 01 00 00 00       	mov    $0x1,%esi
  401dab:	48 8d 7c 24 20       	lea    0x20(%rsp),%rdi
  401db0:	b8 00 00 00 00       	mov    $0x0,%eax
  401db5:	e8 e6 f0 ff ff       	callq  400ea0 <__sprintf_chk@plt>
  401dba:	48 83 c4 20          	add    $0x20,%rsp
  401dbe:	83 3d e3 36 20 00 00 	cmpl   $0x0,0x2036e3(%rip)        # 6054a8 <notify>
  401dc5:	0f 84 81 00 00 00    	je     401e4c <notify_server+0x146>
  401dcb:	85 db                	test   %ebx,%ebx
  401dcd:	74 6e                	je     401e3d <notify_server+0x137>
  401dcf:	4c 8d 8c 24 00 20 00 	lea    0x2000(%rsp),%r9
  401dd6:	00 
  401dd7:	41 b8 00 00 00 00    	mov    $0x0,%r8d
  401ddd:	48 89 e1             	mov    %rsp,%rcx
  401de0:	48 8b 15 89 33 20 00 	mov    0x203389(%rip),%rdx        # 605170 <lab>
  401de7:	48 8b 35 8a 33 20 00 	mov    0x20338a(%rip),%rsi        # 605178 <course>
  401dee:	48 8b 3d 6b 33 20 00 	mov    0x20336b(%rip),%rdi        # 605160 <user_id>
  401df5:	e8 bb 10 00 00       	callq  402eb5 <driver_post>
  401dfa:	85 c0                	test   %eax,%eax
  401dfc:	79 26                	jns    401e24 <notify_server+0x11e>
  401dfe:	48 8d 94 24 00 20 00 	lea    0x2000(%rsp),%rdx
  401e05:	00 
  401e06:	be 57 34 40 00       	mov    $0x403457,%esi
  401e0b:	bf 01 00 00 00       	mov    $0x1,%edi
  401e10:	b8 00 00 00 00       	mov    $0x0,%eax
  401e15:	e8 06 f0 ff ff       	callq  400e20 <__printf_chk@plt>
  401e1a:	bf 01 00 00 00       	mov    $0x1,%edi
  401e1f:	e8 4c f0 ff ff       	callq  400e70 <exit@plt>
  401e24:	bf 80 35 40 00       	mov    $0x403580,%edi
  401e29:	e8 b2 ee ff ff       	callq  400ce0 <puts@plt>
  401e2e:	bf 63 34 40 00       	mov    $0x403463,%edi
  401e33:	e8 a8 ee ff ff       	callq  400ce0 <puts@plt>
  401e38:	e9 9b 00 00 00       	jmpq   401ed8 <notify_server+0x1d2>
  401e3d:	bf 6d 34 40 00       	mov    $0x40346d,%edi
  401e42:	e8 99 ee ff ff       	callq  400ce0 <puts@plt>
  401e47:	e9 8c 00 00 00       	jmpq   401ed8 <notify_server+0x1d2>
  401e4c:	85 db                	test   %ebx,%ebx
  401e4e:	74 07                	je     401e57 <notify_server+0x151>
  401e50:	ba 31 34 40 00       	mov    $0x403431,%edx
  401e55:	eb 05                	jmp    401e5c <notify_server+0x156>
  401e57:	ba 36 34 40 00       	mov    $0x403436,%edx
  401e5c:	be b8 35 40 00       	mov    $0x4035b8,%esi
  401e61:	bf 01 00 00 00       	mov    $0x1,%edi
  401e66:	b8 00 00 00 00       	mov    $0x0,%eax
  401e6b:	e8 b0 ef ff ff       	callq  400e20 <__printf_chk@plt>
  401e70:	48 8b 15 e9 32 20 00 	mov    0x2032e9(%rip),%rdx        # 605160 <user_id>
  401e77:	be 74 34 40 00       	mov    $0x403474,%esi
  401e7c:	bf 01 00 00 00       	mov    $0x1,%edi
  401e81:	b8 00 00 00 00       	mov    $0x0,%eax
  401e86:	e8 95 ef ff ff       	callq  400e20 <__printf_chk@plt>
  401e8b:	48 8b 15 e6 32 20 00 	mov    0x2032e6(%rip),%rdx        # 605178 <course>
  401e92:	be 81 34 40 00       	mov    $0x403481,%esi
  401e97:	bf 01 00 00 00       	mov    $0x1,%edi
  401e9c:	b8 00 00 00 00       	mov    $0x0,%eax
  401ea1:	e8 7a ef ff ff       	callq  400e20 <__printf_chk@plt>
  401ea6:	48 8b 15 c3 32 20 00 	mov    0x2032c3(%rip),%rdx        # 605170 <lab>
  401ead:	be 8d 34 40 00       	mov    $0x40348d,%esi
  401eb2:	bf 01 00 00 00       	mov    $0x1,%edi
  401eb7:	b8 00 00 00 00       	mov    $0x0,%eax
  401ebc:	e8 5f ef ff ff       	callq  400e20 <__printf_chk@plt>
  401ec1:	48 89 e2             	mov    %rsp,%rdx
  401ec4:	be 96 34 40 00       	mov    $0x403496,%esi
  401ec9:	bf 01 00 00 00       	mov    $0x1,%edi
  401ece:	b8 00 00 00 00       	mov    $0x0,%eax
  401ed3:	e8 48 ef ff ff       	callq  400e20 <__printf_chk@plt>
  401ed8:	48 8b 84 24 08 40 00 	mov    0x4008(%rsp),%rax
  401edf:	00 
  401ee0:	64 48 33 04 25 28 00 	xor    %fs:0x28,%rax
  401ee7:	00 00 
  401ee9:	74 05                	je     401ef0 <notify_server+0x1ea>
  401eeb:	e8 10 ee ff ff       	callq  400d00 <__stack_chk_fail@plt>
  401ef0:	48 81 c4 10 40 00 00 	add    $0x4010,%rsp
  401ef7:	5b                   	pop    %rbx
  401ef8:	c3                   	retq   

0000000000401ef9 <validate>:
  401ef9:	53                   	push   %rbx
  401efa:	89 fb                	mov    %edi,%ebx
  401efc:	83 3d 25 36 20 00 00 	cmpl   $0x0,0x203625(%rip)        # 605528 <is_checker>
  401f03:	74 6b                	je     401f70 <validate+0x77>
  401f05:	39 3d 11 36 20 00    	cmp    %edi,0x203611(%rip)        # 60551c <vlevel>
  401f0b:	74 14                	je     401f21 <validate+0x28>
  401f0d:	bf a2 34 40 00       	mov    $0x4034a2,%edi
  401f12:	e8 c9 ed ff ff       	callq  400ce0 <puts@plt>
  401f17:	b8 00 00 00 00       	mov    $0x0,%eax
  401f1c:	e8 5e fd ff ff       	callq  401c7f <check_fail>
  401f21:	8b 15 f1 35 20 00    	mov    0x2035f1(%rip),%edx        # 605518 <check_level>
  401f27:	39 d7                	cmp    %edx,%edi
  401f29:	74 20                	je     401f4b <validate+0x52>
  401f2b:	89 f9                	mov    %edi,%ecx
  401f2d:	be e0 35 40 00       	mov    $0x4035e0,%esi
  401f32:	bf 01 00 00 00       	mov    $0x1,%edi
  401f37:	b8 00 00 00 00       	mov    $0x0,%eax
  401f3c:	e8 df ee ff ff       	callq  400e20 <__printf_chk@plt>
  401f41:	b8 00 00 00 00       	mov    $0x0,%eax
  401f46:	e8 34 fd ff ff       	callq  401c7f <check_fail>
  401f4b:	0f be 15 f6 41 20 00 	movsbl 0x2041f6(%rip),%edx        # 606148 <target_prefix>
  401f52:	41 b8 40 55 60 00    	mov    $0x605540,%r8d
  401f58:	89 f9                	mov    %edi,%ecx
  401f5a:	be c0 34 40 00       	mov    $0x4034c0,%esi
  401f5f:	bf 01 00 00 00       	mov    $0x1,%edi
  401f64:	b8 00 00 00 00       	mov    $0x0,%eax
  401f69:	e8 b2 ee ff ff       	callq  400e20 <__printf_chk@plt>
  401f6e:	eb 49                	jmp    401fb9 <validate+0xc0>
  401f70:	3b 3d a6 35 20 00    	cmp    0x2035a6(%rip),%edi        # 60551c <vlevel>
  401f76:	74 18                	je     401f90 <validate+0x97>
  401f78:	bf a2 34 40 00       	mov    $0x4034a2,%edi
  401f7d:	e8 5e ed ff ff       	callq  400ce0 <puts@plt>
  401f82:	89 de                	mov    %ebx,%esi
  401f84:	bf 00 00 00 00       	mov    $0x0,%edi
  401f89:	e8 78 fd ff ff       	callq  401d06 <notify_server>
  401f8e:	eb 29                	jmp    401fb9 <validate+0xc0>
  401f90:	0f be 0d b1 41 20 00 	movsbl 0x2041b1(%rip),%ecx        # 606148 <target_prefix>
  401f97:	89 fa                	mov    %edi,%edx
  401f99:	be 08 36 40 00       	mov    $0x403608,%esi
  401f9e:	bf 01 00 00 00       	mov    $0x1,%edi
  401fa3:	b8 00 00 00 00       	mov    $0x0,%eax
  401fa8:	e8 73 ee ff ff       	callq  400e20 <__printf_chk@plt>
  401fad:	89 de                	mov    %ebx,%esi
  401faf:	bf 01 00 00 00       	mov    $0x1,%edi
  401fb4:	e8 4d fd ff ff       	callq  401d06 <notify_server>
  401fb9:	5b                   	pop    %rbx
  401fba:	c3                   	retq   

0000000000401fbb <fail>:
  401fbb:	48 83 ec 08          	sub    $0x8,%rsp
  401fbf:	83 3d 62 35 20 00 00 	cmpl   $0x0,0x203562(%rip)        # 605528 <is_checker>
  401fc6:	74 0a                	je     401fd2 <fail+0x17>
  401fc8:	b8 00 00 00 00       	mov    $0x0,%eax
  401fcd:	e8 ad fc ff ff       	callq  401c7f <check_fail>
  401fd2:	89 fe                	mov    %edi,%esi
  401fd4:	bf 00 00 00 00       	mov    $0x0,%edi
  401fd9:	e8 28 fd ff ff       	callq  401d06 <notify_server>
  401fde:	48 83 c4 08          	add    $0x8,%rsp
  401fe2:	c3                   	retq   

0000000000401fe3 <bushandler>:
  401fe3:	48 83 ec 08          	sub    $0x8,%rsp
  401fe7:	83 3d 3a 35 20 00 00 	cmpl   $0x0,0x20353a(%rip)        # 605528 <is_checker>
  401fee:	74 14                	je     402004 <bushandler+0x21>
  401ff0:	bf d5 34 40 00       	mov    $0x4034d5,%edi
  401ff5:	e8 e6 ec ff ff       	callq  400ce0 <puts@plt>
  401ffa:	b8 00 00 00 00       	mov    $0x0,%eax
  401fff:	e8 7b fc ff ff       	callq  401c7f <check_fail>
  402004:	bf 40 36 40 00       	mov    $0x403640,%edi
  402009:	e8 d2 ec ff ff       	callq  400ce0 <puts@plt>
  40200e:	bf df 34 40 00       	mov    $0x4034df,%edi
  402013:	e8 c8 ec ff ff       	callq  400ce0 <puts@plt>
  402018:	be 00 00 00 00       	mov    $0x0,%esi
  40201d:	bf 00 00 00 00       	mov    $0x0,%edi
  402022:	e8 df fc ff ff       	callq  401d06 <notify_server>
  402027:	bf 01 00 00 00       	mov    $0x1,%edi
  40202c:	e8 3f ee ff ff       	callq  400e70 <exit@plt>

0000000000402031 <seghandler>:
  402031:	48 83 ec 08          	sub    $0x8,%rsp
  402035:	83 3d ec 34 20 00 00 	cmpl   $0x0,0x2034ec(%rip)        # 605528 <is_checker>
  40203c:	74 14                	je     402052 <seghandler+0x21>
  40203e:	bf f5 34 40 00       	mov    $0x4034f5,%edi
  402043:	e8 98 ec ff ff       	callq  400ce0 <puts@plt>
  402048:	b8 00 00 00 00       	mov    $0x0,%eax
  40204d:	e8 2d fc ff ff       	callq  401c7f <check_fail>
  402052:	bf 60 36 40 00       	mov    $0x403660,%edi
  402057:	e8 84 ec ff ff       	callq  400ce0 <puts@plt>
  40205c:	bf df 34 40 00       	mov    $0x4034df,%edi
  402061:	e8 7a ec ff ff       	callq  400ce0 <puts@plt>
  402066:	be 00 00 00 00       	mov    $0x0,%esi
  40206b:	bf 00 00 00 00       	mov    $0x0,%edi
  402070:	e8 91 fc ff ff       	callq  401d06 <notify_server>
  402075:	bf 01 00 00 00       	mov    $0x1,%edi
  40207a:	e8 f1 ed ff ff       	callq  400e70 <exit@plt>

000000000040207f <illegalhandler>:
  40207f:	48 83 ec 08          	sub    $0x8,%rsp
  402083:	83 3d 9e 34 20 00 00 	cmpl   $0x0,0x20349e(%rip)        # 605528 <is_checker>
  40208a:	74 14                	je     4020a0 <illegalhandler+0x21>
  40208c:	bf 08 35 40 00       	mov    $0x403508,%edi
  402091:	e8 4a ec ff ff       	callq  400ce0 <puts@plt>
  402096:	b8 00 00 00 00       	mov    $0x0,%eax
  40209b:	e8 df fb ff ff       	callq  401c7f <check_fail>
  4020a0:	bf 88 36 40 00       	mov    $0x403688,%edi
  4020a5:	e8 36 ec ff ff       	callq  400ce0 <puts@plt>
  4020aa:	bf df 34 40 00       	mov    $0x4034df,%edi
  4020af:	e8 2c ec ff ff       	callq  400ce0 <puts@plt>
  4020b4:	be 00 00 00 00       	mov    $0x0,%esi
  4020b9:	bf 00 00 00 00       	mov    $0x0,%edi
  4020be:	e8 43 fc ff ff       	callq  401d06 <notify_server>
  4020c3:	bf 01 00 00 00       	mov    $0x1,%edi
  4020c8:	e8 a3 ed ff ff       	callq  400e70 <exit@plt>

00000000004020cd <sigalrmhandler>:
  4020cd:	48 83 ec 08          	sub    $0x8,%rsp
  4020d1:	83 3d 50 34 20 00 00 	cmpl   $0x0,0x203450(%rip)        # 605528 <is_checker>
  4020d8:	74 14                	je     4020ee <sigalrmhandler+0x21>
  4020da:	bf 1c 35 40 00       	mov    $0x40351c,%edi
  4020df:	e8 fc eb ff ff       	callq  400ce0 <puts@plt>
  4020e4:	b8 00 00 00 00       	mov    $0x0,%eax
  4020e9:	e8 91 fb ff ff       	callq  401c7f <check_fail>
  4020ee:	ba 05 00 00 00       	mov    $0x5,%edx
  4020f3:	be b8 36 40 00       	mov    $0x4036b8,%esi
  4020f8:	bf 01 00 00 00       	mov    $0x1,%edi
  4020fd:	b8 00 00 00 00       	mov    $0x0,%eax
  402102:	e8 19 ed ff ff       	callq  400e20 <__printf_chk@plt>
  402107:	be 00 00 00 00       	mov    $0x0,%esi
  40210c:	bf 00 00 00 00       	mov    $0x0,%edi
  402111:	e8 f0 fb ff ff       	callq  401d06 <notify_server>
  402116:	bf 01 00 00 00       	mov    $0x1,%edi
  40211b:	e8 50 ed ff ff       	callq  400e70 <exit@plt>

0000000000402120 <launch>:
  402120:	55                   	push   %rbp
  402121:	48 89 e5             	mov    %rsp,%rbp
  402124:	48 83 ec 10          	sub    $0x10,%rsp
  402128:	48 89 fa             	mov    %rdi,%rdx
  40212b:	64 48 8b 04 25 28 00 	mov    %fs:0x28,%rax
  402132:	00 00 
  402134:	48 89 45 f8          	mov    %rax,-0x8(%rbp)
  402138:	31 c0                	xor    %eax,%eax
  40213a:	48 8d 47 1e          	lea    0x1e(%rdi),%rax
  40213e:	48 83 e0 f0          	and    $0xfffffffffffffff0,%rax
  402142:	48 29 c4             	sub    %rax,%rsp
  402145:	48 8d 7c 24 0f       	lea    0xf(%rsp),%rdi
  40214a:	48 83 e7 f0          	and    $0xfffffffffffffff0,%rdi
  40214e:	be f4 00 00 00       	mov    $0xf4,%esi
  402153:	e8 c8 eb ff ff       	callq  400d20 <memset@plt>
  402158:	48 8b 05 61 33 20 00 	mov    0x203361(%rip),%rax        # 6054c0 <stdin@@GLIBC_2.2.5>
  40215f:	48 39 05 aa 33 20 00 	cmp    %rax,0x2033aa(%rip)        # 605510 <infile>
  402166:	75 14                	jne    40217c <launch+0x5c>
  402168:	be 24 35 40 00       	mov    $0x403524,%esi
  40216d:	bf 01 00 00 00       	mov    $0x1,%edi
  402172:	b8 00 00 00 00       	mov    $0x0,%eax
  402177:	e8 a4 ec ff ff       	callq  400e20 <__printf_chk@plt>
  40217c:	c7 05 96 33 20 00 00 	movl   $0x0,0x203396(%rip)        # 60551c <vlevel>
  402183:	00 00 00 
  402186:	b8 00 00 00 00       	mov    $0x0,%eax
  40218b:	e8 3d f9 ff ff       	callq  401acd <test>
  402190:	83 3d 91 33 20 00 00 	cmpl   $0x0,0x203391(%rip)        # 605528 <is_checker>
  402197:	74 14                	je     4021ad <launch+0x8d>
  402199:	bf 31 35 40 00       	mov    $0x403531,%edi
  40219e:	e8 3d eb ff ff       	callq  400ce0 <puts@plt>
  4021a3:	b8 00 00 00 00       	mov    $0x0,%eax
  4021a8:	e8 d2 fa ff ff       	callq  401c7f <check_fail>
  4021ad:	bf 3c 35 40 00       	mov    $0x40353c,%edi
  4021b2:	e8 29 eb ff ff       	callq  400ce0 <puts@plt>
  4021b7:	48 8b 45 f8          	mov    -0x8(%rbp),%rax
  4021bb:	64 48 33 04 25 28 00 	xor    %fs:0x28,%rax
  4021c2:	00 00 
  4021c4:	74 05                	je     4021cb <launch+0xab>
  4021c6:	e8 35 eb ff ff       	callq  400d00 <__stack_chk_fail@plt>
  4021cb:	c9                   	leaveq 
  4021cc:	c3                   	retq   

00000000004021cd <stable_launch>:
  4021cd:	53                   	push   %rbx
  4021ce:	48 89 3d 33 33 20 00 	mov    %rdi,0x203333(%rip)        # 605508 <global_offset>
  4021d5:	41 b9 00 00 00 00    	mov    $0x0,%r9d
  4021db:	41 b8 00 00 00 00    	mov    $0x0,%r8d
  4021e1:	b9 32 01 00 00       	mov    $0x132,%ecx
  4021e6:	ba 07 00 00 00       	mov    $0x7,%edx
  4021eb:	be 00 00 10 00       	mov    $0x100000,%esi
  4021f0:	bf 00 60 58 55       	mov    $0x55586000,%edi
  4021f5:	e8 16 eb ff ff       	callq  400d10 <mmap@plt>
  4021fa:	48 89 c3             	mov    %rax,%rbx
  4021fd:	48 3d 00 60 58 55    	cmp    $0x55586000,%rax
  402203:	74 37                	je     40223c <stable_launch+0x6f>
  402205:	be 00 00 10 00       	mov    $0x100000,%esi
  40220a:	48 89 c7             	mov    %rax,%rdi
  40220d:	e8 fe eb ff ff       	callq  400e10 <munmap@plt>
  402212:	b9 00 60 58 55       	mov    $0x55586000,%ecx
  402217:	ba f0 36 40 00       	mov    $0x4036f0,%edx
  40221c:	be 01 00 00 00       	mov    $0x1,%esi
  402221:	48 8b 3d c0 32 20 00 	mov    0x2032c0(%rip),%rdi        # 6054e8 <stderr@@GLIBC_2.2.5>
  402228:	b8 00 00 00 00       	mov    $0x0,%eax
  40222d:	e8 5e ec ff ff       	callq  400e90 <__fprintf_chk@plt>
  402232:	bf 01 00 00 00       	mov    $0x1,%edi
  402237:	e8 34 ec ff ff       	callq  400e70 <exit@plt>
  40223c:	48 8d 90 f8 ff 0f 00 	lea    0xffff8(%rax),%rdx
  402243:	48 89 15 06 3f 20 00 	mov    %rdx,0x203f06(%rip)        # 606150 <stack_top>
  40224a:	48 89 e0             	mov    %rsp,%rax
  40224d:	48 89 d4             	mov    %rdx,%rsp
  402250:	48 89 c2             	mov    %rax,%rdx
  402253:	48 89 15 a6 32 20 00 	mov    %rdx,0x2032a6(%rip)        # 605500 <global_save_stack>
  40225a:	48 8b 3d a7 32 20 00 	mov    0x2032a7(%rip),%rdi        # 605508 <global_offset>
  402261:	e8 ba fe ff ff       	callq  402120 <launch>
  402266:	48 8b 05 93 32 20 00 	mov    0x203293(%rip),%rax        # 605500 <global_save_stack>
  40226d:	48 89 c4             	mov    %rax,%rsp
  402270:	be 00 00 10 00       	mov    $0x100000,%esi
  402275:	48 89 df             	mov    %rbx,%rdi
  402278:	e8 93 eb ff ff       	callq  400e10 <munmap@plt>
  40227d:	5b                   	pop    %rbx
  40227e:	c3                   	retq   

000000000040227f <rio_readinitb>:
  40227f:	89 37                	mov    %esi,(%rdi)
  402281:	c7 47 04 00 00 00 00 	movl   $0x0,0x4(%rdi)
  402288:	48 8d 47 10          	lea    0x10(%rdi),%rax
  40228c:	48 89 47 08          	mov    %rax,0x8(%rdi)
  402290:	c3                   	retq   

0000000000402291 <sigalrm_handler>:
  402291:	48 83 ec 08          	sub    $0x8,%rsp
  402295:	b9 00 00 00 00       	mov    $0x0,%ecx
  40229a:	ba 30 37 40 00       	mov    $0x403730,%edx
  40229f:	be 01 00 00 00       	mov    $0x1,%esi
  4022a4:	48 8b 3d 3d 32 20 00 	mov    0x20323d(%rip),%rdi        # 6054e8 <stderr@@GLIBC_2.2.5>
  4022ab:	b8 00 00 00 00       	mov    $0x0,%eax
  4022b0:	e8 db eb ff ff       	callq  400e90 <__fprintf_chk@plt>
  4022b5:	bf 01 00 00 00       	mov    $0x1,%edi
  4022ba:	e8 b1 eb ff ff       	callq  400e70 <exit@plt>

00000000004022bf <rio_writen>:
  4022bf:	41 55                	push   %r13
  4022c1:	41 54                	push   %r12
  4022c3:	55                   	push   %rbp
  4022c4:	53                   	push   %rbx
  4022c5:	48 83 ec 08          	sub    $0x8,%rsp
  4022c9:	41 89 fc             	mov    %edi,%r12d
  4022cc:	48 89 f5             	mov    %rsi,%rbp
  4022cf:	49 89 d5             	mov    %rdx,%r13
  4022d2:	48 89 d3             	mov    %rdx,%rbx
  4022d5:	eb 28                	jmp    4022ff <rio_writen+0x40>
  4022d7:	48 89 da             	mov    %rbx,%rdx
  4022da:	48 89 ee             	mov    %rbp,%rsi
  4022dd:	44 89 e7             	mov    %r12d,%edi
  4022e0:	e8 0b ea ff ff       	callq  400cf0 <write@plt>
  4022e5:	48 85 c0             	test   %rax,%rax
  4022e8:	7f 0f                	jg     4022f9 <rio_writen+0x3a>
  4022ea:	e8 b1 e9 ff ff       	callq  400ca0 <__errno_location@plt>
  4022ef:	83 38 04             	cmpl   $0x4,(%rax)
  4022f2:	75 15                	jne    402309 <rio_writen+0x4a>
  4022f4:	b8 00 00 00 00       	mov    $0x0,%eax
  4022f9:	48 29 c3             	sub    %rax,%rbx
  4022fc:	48 01 c5             	add    %rax,%rbp
  4022ff:	48 85 db             	test   %rbx,%rbx
  402302:	75 d3                	jne    4022d7 <rio_writen+0x18>
  402304:	4c 89 e8             	mov    %r13,%rax
  402307:	eb 07                	jmp    402310 <rio_writen+0x51>
  402309:	48 c7 c0 ff ff ff ff 	mov    $0xffffffffffffffff,%rax
  402310:	48 83 c4 08          	add    $0x8,%rsp
  402314:	5b                   	pop    %rbx
  402315:	5d                   	pop    %rbp
  402316:	41 5c                	pop    %r12
  402318:	41 5d                	pop    %r13
  40231a:	c3                   	retq   

000000000040231b <rio_read>:
  40231b:	41 55                	push   %r13
  40231d:	41 54                	push   %r12
  40231f:	55                   	push   %rbp
  402320:	53                   	push   %rbx
  402321:	48 83 ec 08          	sub    $0x8,%rsp
  402325:	48 89 fb             	mov    %rdi,%rbx
  402328:	49 89 f5             	mov    %rsi,%r13
  40232b:	49 89 d4             	mov    %rdx,%r12
  40232e:	eb 2e                	jmp    40235e <rio_read+0x43>
  402330:	48 8d 6b 10          	lea    0x10(%rbx),%rbp
  402334:	8b 3b                	mov    (%rbx),%edi
  402336:	ba 00 20 00 00       	mov    $0x2000,%edx
  40233b:	48 89 ee             	mov    %rbp,%rsi
  40233e:	e8 0d ea ff ff       	callq  400d50 <read@plt>
  402343:	89 43 04             	mov    %eax,0x4(%rbx)
  402346:	85 c0                	test   %eax,%eax
  402348:	79 0c                	jns    402356 <rio_read+0x3b>
  40234a:	e8 51 e9 ff ff       	callq  400ca0 <__errno_location@plt>
  40234f:	83 38 04             	cmpl   $0x4,(%rax)
  402352:	74 0a                	je     40235e <rio_read+0x43>
  402354:	eb 37                	jmp    40238d <rio_read+0x72>
  402356:	85 c0                	test   %eax,%eax
  402358:	74 3c                	je     402396 <rio_read+0x7b>
  40235a:	48 89 6b 08          	mov    %rbp,0x8(%rbx)
  40235e:	8b 6b 04             	mov    0x4(%rbx),%ebp
  402361:	85 ed                	test   %ebp,%ebp
  402363:	7e cb                	jle    402330 <rio_read+0x15>
  402365:	89 e8                	mov    %ebp,%eax
  402367:	49 39 c4             	cmp    %rax,%r12
  40236a:	77 03                	ja     40236f <rio_read+0x54>
  40236c:	44 89 e5             	mov    %r12d,%ebp
  40236f:	4c 63 e5             	movslq %ebp,%r12
  402372:	48 8b 73 08          	mov    0x8(%rbx),%rsi
  402376:	4c 89 e2             	mov    %r12,%rdx
  402379:	4c 89 ef             	mov    %r13,%rdi
  40237c:	e8 3f ea ff ff       	callq  400dc0 <memcpy@plt>
  402381:	4c 01 63 08          	add    %r12,0x8(%rbx)
  402385:	29 6b 04             	sub    %ebp,0x4(%rbx)
  402388:	4c 89 e0             	mov    %r12,%rax
  40238b:	eb 0e                	jmp    40239b <rio_read+0x80>
  40238d:	48 c7 c0 ff ff ff ff 	mov    $0xffffffffffffffff,%rax
  402394:	eb 05                	jmp    40239b <rio_read+0x80>
  402396:	b8 00 00 00 00       	mov    $0x0,%eax
  40239b:	48 83 c4 08          	add    $0x8,%rsp
  40239f:	5b                   	pop    %rbx
  4023a0:	5d                   	pop    %rbp
  4023a1:	41 5c                	pop    %r12
  4023a3:	41 5d                	pop    %r13
  4023a5:	c3                   	retq   

00000000004023a6 <rio_readlineb>:
  4023a6:	41 55                	push   %r13
  4023a8:	41 54                	push   %r12
  4023aa:	55                   	push   %rbp
  4023ab:	53                   	push   %rbx
  4023ac:	48 83 ec 18          	sub    $0x18,%rsp
  4023b0:	49 89 fd             	mov    %rdi,%r13
  4023b3:	48 89 f5             	mov    %rsi,%rbp
  4023b6:	49 89 d4             	mov    %rdx,%r12
  4023b9:	bb 01 00 00 00       	mov    $0x1,%ebx
  4023be:	eb 3f                	jmp    4023ff <rio_readlineb+0x59>
  4023c0:	ba 01 00 00 00       	mov    $0x1,%edx
  4023c5:	48 8d 74 24 0f       	lea    0xf(%rsp),%rsi
  4023ca:	4c 89 ef             	mov    %r13,%rdi
  4023cd:	e8 49 ff ff ff       	callq  40231b <rio_read>
  4023d2:	83 f8 01             	cmp    $0x1,%eax
  4023d5:	75 15                	jne    4023ec <rio_readlineb+0x46>
  4023d7:	48 8d 45 01          	lea    0x1(%rbp),%rax
  4023db:	0f b6 54 24 0f       	movzbl 0xf(%rsp),%edx
  4023e0:	88 55 00             	mov    %dl,0x0(%rbp)
  4023e3:	80 7c 24 0f 0a       	cmpb   $0xa,0xf(%rsp)
  4023e8:	75 0e                	jne    4023f8 <rio_readlineb+0x52>
  4023ea:	eb 1a                	jmp    402406 <rio_readlineb+0x60>
  4023ec:	85 c0                	test   %eax,%eax
  4023ee:	75 22                	jne    402412 <rio_readlineb+0x6c>
  4023f0:	48 83 fb 01          	cmp    $0x1,%rbx
  4023f4:	75 13                	jne    402409 <rio_readlineb+0x63>
  4023f6:	eb 23                	jmp    40241b <rio_readlineb+0x75>
  4023f8:	48 83 c3 01          	add    $0x1,%rbx
  4023fc:	48 89 c5             	mov    %rax,%rbp
  4023ff:	4c 39 e3             	cmp    %r12,%rbx
  402402:	72 bc                	jb     4023c0 <rio_readlineb+0x1a>
  402404:	eb 03                	jmp    402409 <rio_readlineb+0x63>
  402406:	48 89 c5             	mov    %rax,%rbp
  402409:	c6 45 00 00          	movb   $0x0,0x0(%rbp)
  40240d:	48 89 d8             	mov    %rbx,%rax
  402410:	eb 0e                	jmp    402420 <rio_readlineb+0x7a>
  402412:	48 c7 c0 ff ff ff ff 	mov    $0xffffffffffffffff,%rax
  402419:	eb 05                	jmp    402420 <rio_readlineb+0x7a>
  40241b:	b8 00 00 00 00       	mov    $0x0,%eax
  402420:	48 83 c4 18          	add    $0x18,%rsp
  402424:	5b                   	pop    %rbx
  402425:	5d                   	pop    %rbp
  402426:	41 5c                	pop    %r12
  402428:	41 5d                	pop    %r13
  40242a:	c3                   	retq   

000000000040242b <urlencode>:
  40242b:	41 54                	push   %r12
  40242d:	55                   	push   %rbp
  40242e:	53                   	push   %rbx
  40242f:	48 83 ec 10          	sub    $0x10,%rsp
  402433:	48 89 fb             	mov    %rdi,%rbx
  402436:	48 89 f5             	mov    %rsi,%rbp
  402439:	64 48 8b 04 25 28 00 	mov    %fs:0x28,%rax
  402440:	00 00 
  402442:	48 89 44 24 08       	mov    %rax,0x8(%rsp)
  402447:	31 c0                	xor    %eax,%eax
  402449:	48 c7 c1 ff ff ff ff 	mov    $0xffffffffffffffff,%rcx
  402450:	f2 ae                	repnz scas %es:(%rdi),%al
  402452:	48 f7 d1             	not    %rcx
  402455:	8d 41 ff             	lea    -0x1(%rcx),%eax
  402458:	e9 aa 00 00 00       	jmpq   402507 <urlencode+0xdc>
  40245d:	44 0f b6 03          	movzbl (%rbx),%r8d
  402461:	41 80 f8 2a          	cmp    $0x2a,%r8b
  402465:	0f 94 c2             	sete   %dl
  402468:	41 80 f8 2d          	cmp    $0x2d,%r8b
  40246c:	0f 94 c0             	sete   %al
  40246f:	08 c2                	or     %al,%dl
  402471:	75 24                	jne    402497 <urlencode+0x6c>
  402473:	41 80 f8 2e          	cmp    $0x2e,%r8b
  402477:	74 1e                	je     402497 <urlencode+0x6c>
  402479:	41 80 f8 5f          	cmp    $0x5f,%r8b
  40247d:	74 18                	je     402497 <urlencode+0x6c>
  40247f:	41 8d 40 d0          	lea    -0x30(%r8),%eax
  402483:	3c 09                	cmp    $0x9,%al
  402485:	76 10                	jbe    402497 <urlencode+0x6c>
  402487:	41 8d 40 bf          	lea    -0x41(%r8),%eax
  40248b:	3c 19                	cmp    $0x19,%al
  40248d:	76 08                	jbe    402497 <urlencode+0x6c>
  40248f:	41 8d 40 9f          	lea    -0x61(%r8),%eax
  402493:	3c 19                	cmp    $0x19,%al
  402495:	77 0a                	ja     4024a1 <urlencode+0x76>
  402497:	44 88 45 00          	mov    %r8b,0x0(%rbp)
  40249b:	48 8d 6d 01          	lea    0x1(%rbp),%rbp
  40249f:	eb 5f                	jmp    402500 <urlencode+0xd5>
  4024a1:	41 80 f8 20          	cmp    $0x20,%r8b
  4024a5:	75 0a                	jne    4024b1 <urlencode+0x86>
  4024a7:	c6 45 00 2b          	movb   $0x2b,0x0(%rbp)
  4024ab:	48 8d 6d 01          	lea    0x1(%rbp),%rbp
  4024af:	eb 4f                	jmp    402500 <urlencode+0xd5>
  4024b1:	41 8d 40 e0          	lea    -0x20(%r8),%eax
  4024b5:	3c 5f                	cmp    $0x5f,%al
  4024b7:	0f 96 c2             	setbe  %dl
  4024ba:	41 80 f8 09          	cmp    $0x9,%r8b
  4024be:	0f 94 c0             	sete   %al
  4024c1:	08 c2                	or     %al,%dl
  4024c3:	74 50                	je     402515 <urlencode+0xea>
  4024c5:	45 0f b6 c0          	movzbl %r8b,%r8d
  4024c9:	b9 c8 37 40 00       	mov    $0x4037c8,%ecx
  4024ce:	ba 08 00 00 00       	mov    $0x8,%edx
  4024d3:	be 01 00 00 00       	mov    $0x1,%esi
  4024d8:	48 89 e7             	mov    %rsp,%rdi
  4024db:	b8 00 00 00 00       	mov    $0x0,%eax
  4024e0:	e8 bb e9 ff ff       	callq  400ea0 <__sprintf_chk@plt>
  4024e5:	0f b6 04 24          	movzbl (%rsp),%eax
  4024e9:	88 45 00             	mov    %al,0x0(%rbp)
  4024ec:	0f b6 44 24 01       	movzbl 0x1(%rsp),%eax
  4024f1:	88 45 01             	mov    %al,0x1(%rbp)
  4024f4:	0f b6 44 24 02       	movzbl 0x2(%rsp),%eax
  4024f9:	88 45 02             	mov    %al,0x2(%rbp)
  4024fc:	48 8d 6d 03          	lea    0x3(%rbp),%rbp
  402500:	48 83 c3 01          	add    $0x1,%rbx
  402504:	44 89 e0             	mov    %r12d,%eax
  402507:	44 8d 60 ff          	lea    -0x1(%rax),%r12d
  40250b:	85 c0                	test   %eax,%eax
  40250d:	0f 85 4a ff ff ff    	jne    40245d <urlencode+0x32>
  402513:	eb 05                	jmp    40251a <urlencode+0xef>
  402515:	b8 ff ff ff ff       	mov    $0xffffffff,%eax
  40251a:	48 8b 74 24 08       	mov    0x8(%rsp),%rsi
  40251f:	64 48 33 34 25 28 00 	xor    %fs:0x28,%rsi
  402526:	00 00 
  402528:	74 05                	je     40252f <urlencode+0x104>
  40252a:	e8 d1 e7 ff ff       	callq  400d00 <__stack_chk_fail@plt>
  40252f:	48 83 c4 10          	add    $0x10,%rsp
  402533:	5b                   	pop    %rbx
  402534:	5d                   	pop    %rbp
  402535:	41 5c                	pop    %r12
  402537:	c3                   	retq   

0000000000402538 <submitr>:
  402538:	41 57                	push   %r15
  40253a:	41 56                	push   %r14
  40253c:	41 55                	push   %r13
  40253e:	41 54                	push   %r12
  402540:	55                   	push   %rbp
  402541:	53                   	push   %rbx
  402542:	48 81 ec 58 a0 00 00 	sub    $0xa058,%rsp
  402549:	49 89 fc             	mov    %rdi,%r12
  40254c:	89 74 24 04          	mov    %esi,0x4(%rsp)
  402550:	49 89 d7             	mov    %rdx,%r15
  402553:	49 89 ce             	mov    %rcx,%r14
  402556:	4c 89 44 24 08       	mov    %r8,0x8(%rsp)
  40255b:	4d 89 cd             	mov    %r9,%r13
  40255e:	48 8b 9c 24 90 a0 00 	mov    0xa090(%rsp),%rbx
  402565:	00 
  402566:	64 48 8b 04 25 28 00 	mov    %fs:0x28,%rax
  40256d:	00 00 
  40256f:	48 89 84 24 48 a0 00 	mov    %rax,0xa048(%rsp)
  402576:	00 
  402577:	31 c0                	xor    %eax,%eax
  402579:	c7 44 24 1c 00 00 00 	movl   $0x0,0x1c(%rsp)
  402580:	00 
  402581:	ba 00 00 00 00       	mov    $0x0,%edx
  402586:	be 01 00 00 00       	mov    $0x1,%esi
  40258b:	bf 02 00 00 00       	mov    $0x2,%edi
  402590:	e8 1b e9 ff ff       	callq  400eb0 <socket@plt>
  402595:	85 c0                	test   %eax,%eax
  402597:	79 4e                	jns    4025e7 <submitr+0xaf>
  402599:	48 b8 45 72 72 6f 72 	movabs $0x43203a726f727245,%rax
  4025a0:	3a 20 43 
  4025a3:	48 89 03             	mov    %rax,(%rbx)
  4025a6:	48 b8 6c 69 65 6e 74 	movabs $0x6e7520746e65696c,%rax
  4025ad:	20 75 6e 
  4025b0:	48 89 43 08          	mov    %rax,0x8(%rbx)
  4025b4:	48 b8 61 62 6c 65 20 	movabs $0x206f7420656c6261,%rax
  4025bb:	74 6f 20 
  4025be:	48 89 43 10          	mov    %rax,0x10(%rbx)
  4025c2:	48 b8 63 72 65 61 74 	movabs $0x7320657461657263,%rax
  4025c9:	65 20 73 
  4025cc:	48 89 43 18          	mov    %rax,0x18(%rbx)
  4025d0:	c7 43 20 6f 63 6b 65 	movl   $0x656b636f,0x20(%rbx)
  4025d7:	66 c7 43 24 74 00    	movw   $0x74,0x24(%rbx)
  4025dd:	b8 ff ff ff ff       	mov    $0xffffffff,%eax
  4025e2:	e9 88 06 00 00       	jmpq   402c6f <submitr+0x737>
  4025e7:	89 c5                	mov    %eax,%ebp
  4025e9:	4c 89 e7             	mov    %r12,%rdi
  4025ec:	e8 8f e7 ff ff       	callq  400d80 <gethostbyname@plt>
  4025f1:	48 85 c0             	test   %rax,%rax
  4025f4:	75 67                	jne    40265d <submitr+0x125>
  4025f6:	48 b8 45 72 72 6f 72 	movabs $0x44203a726f727245,%rax
  4025fd:	3a 20 44 
  402600:	48 89 03             	mov    %rax,(%rbx)
  402603:	48 b8 4e 53 20 69 73 	movabs $0x6e7520736920534e,%rax
  40260a:	20 75 6e 
  40260d:	48 89 43 08          	mov    %rax,0x8(%rbx)
  402611:	48 b8 61 62 6c 65 20 	movabs $0x206f7420656c6261,%rax
  402618:	74 6f 20 
  40261b:	48 89 43 10          	mov    %rax,0x10(%rbx)
  40261f:	48 b8 72 65 73 6f 6c 	movabs $0x2065766c6f736572,%rax
  402626:	76 65 20 
  402629:	48 89 43 18          	mov    %rax,0x18(%rbx)
  40262d:	48 b8 73 65 72 76 65 	movabs $0x6120726576726573,%rax
  402634:	72 20 61 
  402637:	48 89 43 20          	mov    %rax,0x20(%rbx)
  40263b:	c7 43 28 64 64 72 65 	movl   $0x65726464,0x28(%rbx)
  402642:	66 c7 43 2c 73 73    	movw   $0x7373,0x2c(%rbx)
  402648:	c6 43 2e 00          	movb   $0x0,0x2e(%rbx)
  40264c:	89 ef                	mov    %ebp,%edi
  40264e:	e8 ed e6 ff ff       	callq  400d40 <close@plt>
  402653:	b8 ff ff ff ff       	mov    $0xffffffff,%eax
  402658:	e9 12 06 00 00       	jmpq   402c6f <submitr+0x737>
  40265d:	48 c7 44 24 20 00 00 	movq   $0x0,0x20(%rsp)
  402664:	00 00 
  402666:	48 c7 44 24 28 00 00 	movq   $0x0,0x28(%rsp)
  40266d:	00 00 
  40266f:	66 c7 44 24 20 02 00 	movw   $0x2,0x20(%rsp)
  402676:	48 63 50 14          	movslq 0x14(%rax),%rdx
  40267a:	48 8b 40 18          	mov    0x18(%rax),%rax
  40267e:	48 8b 30             	mov    (%rax),%rsi
  402681:	48 8d 7c 24 24       	lea    0x24(%rsp),%rdi
  402686:	b9 0c 00 00 00       	mov    $0xc,%ecx
  40268b:	e8 00 e7 ff ff       	callq  400d90 <__memmove_chk@plt>
  402690:	0f b7 44 24 04       	movzwl 0x4(%rsp),%eax
  402695:	66 c1 c8 08          	ror    $0x8,%ax
  402699:	66 89 44 24 22       	mov    %ax,0x22(%rsp)
  40269e:	ba 10 00 00 00       	mov    $0x10,%edx
  4026a3:	48 8d 74 24 20       	lea    0x20(%rsp),%rsi
  4026a8:	89 ef                	mov    %ebp,%edi
  4026aa:	e8 d1 e7 ff ff       	callq  400e80 <connect@plt>
  4026af:	85 c0                	test   %eax,%eax
  4026b1:	79 59                	jns    40270c <submitr+0x1d4>
  4026b3:	48 b8 45 72 72 6f 72 	movabs $0x55203a726f727245,%rax
  4026ba:	3a 20 55 
  4026bd:	48 89 03             	mov    %rax,(%rbx)
  4026c0:	48 b8 6e 61 62 6c 65 	movabs $0x6f7420656c62616e,%rax
  4026c7:	20 74 6f 
  4026ca:	48 89 43 08          	mov    %rax,0x8(%rbx)
  4026ce:	48 b8 20 63 6f 6e 6e 	movabs $0x7463656e6e6f6320,%rax
  4026d5:	65 63 74 
  4026d8:	48 89 43 10          	mov    %rax,0x10(%rbx)
  4026dc:	48 b8 20 74 6f 20 74 	movabs $0x20656874206f7420,%rax
  4026e3:	68 65 20 
  4026e6:	48 89 43 18          	mov    %rax,0x18(%rbx)
  4026ea:	c7 43 20 73 65 72 76 	movl   $0x76726573,0x20(%rbx)
  4026f1:	66 c7 43 24 65 72    	movw   $0x7265,0x24(%rbx)
  4026f7:	c6 43 26 00          	movb   $0x0,0x26(%rbx)
  4026fb:	89 ef                	mov    %ebp,%edi
  4026fd:	e8 3e e6 ff ff       	callq  400d40 <close@plt>
  402702:	b8 ff ff ff ff       	mov    $0xffffffff,%eax
  402707:	e9 63 05 00 00       	jmpq   402c6f <submitr+0x737>
  40270c:	48 c7 c6 ff ff ff ff 	mov    $0xffffffffffffffff,%rsi
  402713:	b8 00 00 00 00       	mov    $0x0,%eax
  402718:	48 89 f1             	mov    %rsi,%rcx
  40271b:	4c 89 ef             	mov    %r13,%rdi
  40271e:	f2 ae                	repnz scas %es:(%rdi),%al
  402720:	48 f7 d1             	not    %rcx
  402723:	48 89 ca             	mov    %rcx,%rdx
  402726:	48 89 f1             	mov    %rsi,%rcx
  402729:	4c 89 ff             	mov    %r15,%rdi
  40272c:	f2 ae                	repnz scas %es:(%rdi),%al
  40272e:	48 f7 d1             	not    %rcx
  402731:	49 89 c8             	mov    %rcx,%r8
  402734:	48 89 f1             	mov    %rsi,%rcx
  402737:	4c 89 f7             	mov    %r14,%rdi
  40273a:	f2 ae                	repnz scas %es:(%rdi),%al
  40273c:	48 f7 d1             	not    %rcx
  40273f:	4d 8d 44 08 fe       	lea    -0x2(%r8,%rcx,1),%r8
  402744:	48 89 f1             	mov    %rsi,%rcx
  402747:	48 8b 7c 24 08       	mov    0x8(%rsp),%rdi
  40274c:	f2 ae                	repnz scas %es:(%rdi),%al
  40274e:	48 89 c8             	mov    %rcx,%rax
  402751:	48 f7 d0             	not    %rax
  402754:	49 8d 4c 00 ff       	lea    -0x1(%r8,%rax,1),%rcx
  402759:	48 8d 44 52 fd       	lea    -0x3(%rdx,%rdx,2),%rax
  40275e:	48 8d 84 01 80 00 00 	lea    0x80(%rcx,%rax,1),%rax
  402765:	00 
  402766:	48 3d 00 20 00 00    	cmp    $0x2000,%rax
  40276c:	76 72                	jbe    4027e0 <submitr+0x2a8>
  40276e:	48 b8 45 72 72 6f 72 	movabs $0x52203a726f727245,%rax
  402775:	3a 20 52 
  402778:	48 89 03             	mov    %rax,(%rbx)
  40277b:	48 b8 65 73 75 6c 74 	movabs $0x747320746c757365,%rax
  402782:	20 73 74 
  402785:	48 89 43 08          	mov    %rax,0x8(%rbx)
  402789:	48 b8 72 69 6e 67 20 	movabs $0x6f6f7420676e6972,%rax
  402790:	74 6f 6f 
  402793:	48 89 43 10          	mov    %rax,0x10(%rbx)
  402797:	48 b8 20 6c 61 72 67 	movabs $0x202e656772616c20,%rax
  40279e:	65 2e 20 
  4027a1:	48 89 43 18          	mov    %rax,0x18(%rbx)
  4027a5:	48 b8 49 6e 63 72 65 	movabs $0x6573616572636e49,%rax
  4027ac:	61 73 65 
  4027af:	48 89 43 20          	mov    %rax,0x20(%rbx)
  4027b3:	48 b8 20 53 55 42 4d 	movabs $0x5254494d42555320,%rax
  4027ba:	49 54 52 
  4027bd:	48 89 43 28          	mov    %rax,0x28(%rbx)
  4027c1:	48 b8 5f 4d 41 58 42 	movabs $0x46554258414d5f,%rax
  4027c8:	55 46 00 
  4027cb:	48 89 43 30          	mov    %rax,0x30(%rbx)
  4027cf:	89 ef                	mov    %ebp,%edi
  4027d1:	e8 6a e5 ff ff       	callq  400d40 <close@plt>
  4027d6:	b8 ff ff ff ff       	mov    $0xffffffff,%eax
  4027db:	e9 8f 04 00 00       	jmpq   402c6f <submitr+0x737>
  4027e0:	48 8d b4 24 30 20 00 	lea    0x2030(%rsp),%rsi
  4027e7:	00 
  4027e8:	b9 00 04 00 00       	mov    $0x400,%ecx
  4027ed:	b8 00 00 00 00       	mov    $0x0,%eax
  4027f2:	48 89 f7             	mov    %rsi,%rdi
  4027f5:	f3 48 ab             	rep stos %rax,%es:(%rdi)
  4027f8:	4c 89 ef             	mov    %r13,%rdi
  4027fb:	e8 2b fc ff ff       	callq  40242b <urlencode>
  402800:	85 c0                	test   %eax,%eax
  402802:	0f 89 8a 00 00 00    	jns    402892 <submitr+0x35a>
  402808:	48 b8 45 72 72 6f 72 	movabs $0x52203a726f727245,%rax
  40280f:	3a 20 52 
  402812:	48 89 03             	mov    %rax,(%rbx)
  402815:	48 b8 65 73 75 6c 74 	movabs $0x747320746c757365,%rax
  40281c:	20 73 74 
  40281f:	48 89 43 08          	mov    %rax,0x8(%rbx)
  402823:	48 b8 72 69 6e 67 20 	movabs $0x6e6f6320676e6972,%rax
  40282a:	63 6f 6e 
  40282d:	48 89 43 10          	mov    %rax,0x10(%rbx)
  402831:	48 b8 74 61 69 6e 73 	movabs $0x6e6120736e696174,%rax
  402838:	20 61 6e 
  40283b:	48 89 43 18          	mov    %rax,0x18(%rbx)
  40283f:	48 b8 20 69 6c 6c 65 	movabs $0x6c6167656c6c6920,%rax
  402846:	67 61 6c 
  402849:	48 89 43 20          	mov    %rax,0x20(%rbx)
  40284d:	48 b8 20 6f 72 20 75 	movabs $0x72706e7520726f20,%rax
  402854:	6e 70 72 
  402857:	48 89 43 28          	mov    %rax,0x28(%rbx)
  40285b:	48 b8 69 6e 74 61 62 	movabs $0x20656c6261746e69,%rax
  402862:	6c 65 20 
  402865:	48 89 43 30          	mov    %rax,0x30(%rbx)
  402869:	48 b8 63 68 61 72 61 	movabs $0x6574636172616863,%rax
  402870:	63 74 65 
  402873:	48 89 43 38          	mov    %rax,0x38(%rbx)
  402877:	66 c7 43 40 72 2e    	movw   $0x2e72,0x40(%rbx)
  40287d:	c6 43 42 00          	movb   $0x0,0x42(%rbx)
  402881:	89 ef                	mov    %ebp,%edi
  402883:	e8 b8 e4 ff ff       	callq  400d40 <close@plt>
  402888:	b8 ff ff ff ff       	mov    $0xffffffff,%eax
  40288d:	e9 dd 03 00 00       	jmpq   402c6f <submitr+0x737>
  402892:	4c 8d 6c 24 30       	lea    0x30(%rsp),%r13
  402897:	41 54                	push   %r12
  402899:	48 8d 84 24 38 20 00 	lea    0x2038(%rsp),%rax
  4028a0:	00 
  4028a1:	50                   	push   %rax
  4028a2:	4d 89 f9             	mov    %r15,%r9
  4028a5:	4d 89 f0             	mov    %r14,%r8
  4028a8:	b9 58 37 40 00       	mov    $0x403758,%ecx
  4028ad:	ba 00 20 00 00       	mov    $0x2000,%edx
  4028b2:	be 01 00 00 00       	mov    $0x1,%esi
  4028b7:	4c 89 ef             	mov    %r13,%rdi
  4028ba:	b8 00 00 00 00       	mov    $0x0,%eax
  4028bf:	e8 dc e5 ff ff       	callq  400ea0 <__sprintf_chk@plt>
  4028c4:	b8 00 00 00 00       	mov    $0x0,%eax
  4028c9:	48 c7 c1 ff ff ff ff 	mov    $0xffffffffffffffff,%rcx
  4028d0:	4c 89 ef             	mov    %r13,%rdi
  4028d3:	f2 ae                	repnz scas %es:(%rdi),%al
  4028d5:	48 f7 d1             	not    %rcx
  4028d8:	48 8d 51 ff          	lea    -0x1(%rcx),%rdx
  4028dc:	4c 89 ee             	mov    %r13,%rsi
  4028df:	89 ef                	mov    %ebp,%edi
  4028e1:	e8 d9 f9 ff ff       	callq  4022bf <rio_writen>
  4028e6:	48 83 c4 10          	add    $0x10,%rsp
  4028ea:	48 85 c0             	test   %rax,%rax
  4028ed:	79 6e                	jns    40295d <submitr+0x425>
  4028ef:	48 b8 45 72 72 6f 72 	movabs $0x43203a726f727245,%rax
  4028f6:	3a 20 43 
  4028f9:	48 89 03             	mov    %rax,(%rbx)
  4028fc:	48 b8 6c 69 65 6e 74 	movabs $0x6e7520746e65696c,%rax
  402903:	20 75 6e 
  402906:	48 89 43 08          	mov    %rax,0x8(%rbx)
  40290a:	48 b8 61 62 6c 65 20 	movabs $0x206f7420656c6261,%rax
  402911:	74 6f 20 
  402914:	48 89 43 10          	mov    %rax,0x10(%rbx)
  402918:	48 b8 77 72 69 74 65 	movabs $0x6f74206574697277,%rax
  40291f:	20 74 6f 
  402922:	48 89 43 18          	mov    %rax,0x18(%rbx)
  402926:	48 b8 20 74 68 65 20 	movabs $0x7365722065687420,%rax
  40292d:	72 65 73 
  402930:	48 89 43 20          	mov    %rax,0x20(%rbx)
  402934:	48 b8 75 6c 74 20 73 	movabs $0x7672657320746c75,%rax
  40293b:	65 72 76 
  40293e:	48 89 43 28          	mov    %rax,0x28(%rbx)
  402942:	66 c7 43 30 65 72    	movw   $0x7265,0x30(%rbx)
  402948:	c6 43 32 00          	movb   $0x0,0x32(%rbx)
  40294c:	89 ef                	mov    %ebp,%edi
  40294e:	e8 ed e3 ff ff       	callq  400d40 <close@plt>
  402953:	b8 ff ff ff ff       	mov    $0xffffffff,%eax
  402958:	e9 12 03 00 00       	jmpq   402c6f <submitr+0x737>
  40295d:	89 ee                	mov    %ebp,%esi
  40295f:	48 8d bc 24 30 80 00 	lea    0x8030(%rsp),%rdi
  402966:	00 
  402967:	e8 13 f9 ff ff       	callq  40227f <rio_readinitb>
  40296c:	ba 00 20 00 00       	mov    $0x2000,%edx
  402971:	48 8d 74 24 30       	lea    0x30(%rsp),%rsi
  402976:	48 8d bc 24 30 80 00 	lea    0x8030(%rsp),%rdi
  40297d:	00 
  40297e:	e8 23 fa ff ff       	callq  4023a6 <rio_readlineb>
  402983:	48 85 c0             	test   %rax,%rax
  402986:	7f 7d                	jg     402a05 <submitr+0x4cd>
  402988:	48 b8 45 72 72 6f 72 	movabs $0x43203a726f727245,%rax
  40298f:	3a 20 43 
  402992:	48 89 03             	mov    %rax,(%rbx)
  402995:	48 b8 6c 69 65 6e 74 	movabs $0x6e7520746e65696c,%rax
  40299c:	20 75 6e 
  40299f:	48 89 43 08          	mov    %rax,0x8(%rbx)
  4029a3:	48 b8 61 62 6c 65 20 	movabs $0x206f7420656c6261,%rax
  4029aa:	74 6f 20 
  4029ad:	48 89 43 10          	mov    %rax,0x10(%rbx)
  4029b1:	48 b8 72 65 61 64 20 	movabs $0x7269662064616572,%rax
  4029b8:	66 69 72 
  4029bb:	48 89 43 18          	mov    %rax,0x18(%rbx)
  4029bf:	48 b8 73 74 20 68 65 	movabs $0x6564616568207473,%rax
  4029c6:	61 64 65 
  4029c9:	48 89 43 20          	mov    %rax,0x20(%rbx)
  4029cd:	48 b8 72 20 66 72 6f 	movabs $0x72206d6f72662072,%rax
  4029d4:	6d 20 72 
  4029d7:	48 89 43 28          	mov    %rax,0x28(%rbx)
  4029db:	48 b8 65 73 75 6c 74 	movabs $0x657320746c757365,%rax
  4029e2:	20 73 65 
  4029e5:	48 89 43 30          	mov    %rax,0x30(%rbx)
  4029e9:	c7 43 38 72 76 65 72 	movl   $0x72657672,0x38(%rbx)
  4029f0:	c6 43 3c 00          	movb   $0x0,0x3c(%rbx)
  4029f4:	89 ef                	mov    %ebp,%edi
  4029f6:	e8 45 e3 ff ff       	callq  400d40 <close@plt>
  4029fb:	b8 ff ff ff ff       	mov    $0xffffffff,%eax
  402a00:	e9 6a 02 00 00       	jmpq   402c6f <submitr+0x737>
  402a05:	4c 8d 84 24 30 60 00 	lea    0x6030(%rsp),%r8
  402a0c:	00 
  402a0d:	48 8d 4c 24 1c       	lea    0x1c(%rsp),%rcx
  402a12:	48 8d 94 24 30 40 00 	lea    0x4030(%rsp),%rdx
  402a19:	00 
  402a1a:	be cf 37 40 00       	mov    $0x4037cf,%esi
  402a1f:	48 8d 7c 24 30       	lea    0x30(%rsp),%rdi
  402a24:	b8 00 00 00 00       	mov    $0x0,%eax
  402a29:	e8 d2 e3 ff ff       	callq  400e00 <__isoc99_sscanf@plt>
  402a2e:	e9 95 00 00 00       	jmpq   402ac8 <submitr+0x590>
  402a33:	ba 00 20 00 00       	mov    $0x2000,%edx
  402a38:	48 8d 74 24 30       	lea    0x30(%rsp),%rsi
  402a3d:	48 8d bc 24 30 80 00 	lea    0x8030(%rsp),%rdi
  402a44:	00 
  402a45:	e8 5c f9 ff ff       	callq  4023a6 <rio_readlineb>
  402a4a:	48 85 c0             	test   %rax,%rax
  402a4d:	7f 79                	jg     402ac8 <submitr+0x590>
  402a4f:	48 b8 45 72 72 6f 72 	movabs $0x43203a726f727245,%rax
  402a56:	3a 20 43 
  402a59:	48 89 03             	mov    %rax,(%rbx)
  402a5c:	48 b8 6c 69 65 6e 74 	movabs $0x6e7520746e65696c,%rax
  402a63:	20 75 6e 
  402a66:	48 89 43 08          	mov    %rax,0x8(%rbx)
  402a6a:	48 b8 61 62 6c 65 20 	movabs $0x206f7420656c6261,%rax
  402a71:	74 6f 20 
  402a74:	48 89 43 10          	mov    %rax,0x10(%rbx)
  402a78:	48 b8 72 65 61 64 20 	movabs $0x6165682064616572,%rax
  402a7f:	68 65 61 
  402a82:	48 89 43 18          	mov    %rax,0x18(%rbx)
  402a86:	48 b8 64 65 72 73 20 	movabs $0x6f72662073726564,%rax
  402a8d:	66 72 6f 
  402a90:	48 89 43 20          	mov    %rax,0x20(%rbx)
  402a94:	48 b8 6d 20 74 68 65 	movabs $0x657220656874206d,%rax
  402a9b:	20 72 65 
  402a9e:	48 89 43 28          	mov    %rax,0x28(%rbx)
  402aa2:	48 b8 73 75 6c 74 20 	movabs $0x72657320746c7573,%rax
  402aa9:	73 65 72 
  402aac:	48 89 43 30          	mov    %rax,0x30(%rbx)
  402ab0:	c7 43 38 76 65 72 00 	movl   $0x726576,0x38(%rbx)
  402ab7:	89 ef                	mov    %ebp,%edi
  402ab9:	e8 82 e2 ff ff       	callq  400d40 <close@plt>
  402abe:	b8 ff ff ff ff       	mov    $0xffffffff,%eax
  402ac3:	e9 a7 01 00 00       	jmpq   402c6f <submitr+0x737>
  402ac8:	0f b6 54 24 30       	movzbl 0x30(%rsp),%edx
  402acd:	b8 0d 00 00 00       	mov    $0xd,%eax
  402ad2:	29 d0                	sub    %edx,%eax
  402ad4:	75 15                	jne    402aeb <submitr+0x5b3>
  402ad6:	0f b6 54 24 31       	movzbl 0x31(%rsp),%edx
  402adb:	b8 0a 00 00 00       	mov    $0xa,%eax
  402ae0:	29 d0                	sub    %edx,%eax
  402ae2:	75 07                	jne    402aeb <submitr+0x5b3>
  402ae4:	0f b6 44 24 32       	movzbl 0x32(%rsp),%eax
  402ae9:	f7 d8                	neg    %eax
  402aeb:	85 c0                	test   %eax,%eax
  402aed:	0f 85 40 ff ff ff    	jne    402a33 <submitr+0x4fb>
  402af3:	ba 00 20 00 00       	mov    $0x2000,%edx
  402af8:	48 8d 74 24 30       	lea    0x30(%rsp),%rsi
  402afd:	48 8d bc 24 30 80 00 	lea    0x8030(%rsp),%rdi
  402b04:	00 
  402b05:	e8 9c f8 ff ff       	callq  4023a6 <rio_readlineb>
  402b0a:	48 85 c0             	test   %rax,%rax
  402b0d:	0f 8f 83 00 00 00    	jg     402b96 <submitr+0x65e>
  402b13:	48 b8 45 72 72 6f 72 	movabs $0x43203a726f727245,%rax
  402b1a:	3a 20 43 
  402b1d:	48 89 03             	mov    %rax,(%rbx)
  402b20:	48 b8 6c 69 65 6e 74 	movabs $0x6e7520746e65696c,%rax
  402b27:	20 75 6e 
  402b2a:	48 89 43 08          	mov    %rax,0x8(%rbx)
  402b2e:	48 b8 61 62 6c 65 20 	movabs $0x206f7420656c6261,%rax
  402b35:	74 6f 20 
  402b38:	48 89 43 10          	mov    %rax,0x10(%rbx)
  402b3c:	48 b8 72 65 61 64 20 	movabs $0x6174732064616572,%rax
  402b43:	73 74 61 
  402b46:	48 89 43 18          	mov    %rax,0x18(%rbx)
  402b4a:	48 b8 74 75 73 20 6d 	movabs $0x7373656d20737574,%rax
  402b51:	65 73 73 
  402b54:	48 89 43 20          	mov    %rax,0x20(%rbx)
  402b58:	48 b8 61 67 65 20 66 	movabs $0x6d6f726620656761,%rax
  402b5f:	72 6f 6d 
  402b62:	48 89 43 28          	mov    %rax,0x28(%rbx)
  402b66:	48 b8 20 72 65 73 75 	movabs $0x20746c7573657220,%rax
  402b6d:	6c 74 20 
  402b70:	48 89 43 30          	mov    %rax,0x30(%rbx)
  402b74:	c7 43 38 73 65 72 76 	movl   $0x76726573,0x38(%rbx)
  402b7b:	66 c7 43 3c 65 72    	movw   $0x7265,0x3c(%rbx)
  402b81:	c6 43 3e 00          	movb   $0x0,0x3e(%rbx)
  402b85:	89 ef                	mov    %ebp,%edi
  402b87:	e8 b4 e1 ff ff       	callq  400d40 <close@plt>
  402b8c:	b8 ff ff ff ff       	mov    $0xffffffff,%eax
  402b91:	e9 d9 00 00 00       	jmpq   402c6f <submitr+0x737>
  402b96:	44 8b 44 24 1c       	mov    0x1c(%rsp),%r8d
  402b9b:	41 81 f8 c8 00 00 00 	cmp    $0xc8,%r8d
  402ba2:	74 37                	je     402bdb <submitr+0x6a3>
  402ba4:	4c 8d 8c 24 30 60 00 	lea    0x6030(%rsp),%r9
  402bab:	00 
  402bac:	b9 98 37 40 00       	mov    $0x403798,%ecx
  402bb1:	48 c7 c2 ff ff ff ff 	mov    $0xffffffffffffffff,%rdx
  402bb8:	be 01 00 00 00       	mov    $0x1,%esi
  402bbd:	48 89 df             	mov    %rbx,%rdi
  402bc0:	b8 00 00 00 00       	mov    $0x0,%eax
  402bc5:	e8 d6 e2 ff ff       	callq  400ea0 <__sprintf_chk@plt>
  402bca:	89 ef                	mov    %ebp,%edi
  402bcc:	e8 6f e1 ff ff       	callq  400d40 <close@plt>
  402bd1:	b8 ff ff ff ff       	mov    $0xffffffff,%eax
  402bd6:	e9 94 00 00 00       	jmpq   402c6f <submitr+0x737>
  402bdb:	48 8d 74 24 30       	lea    0x30(%rsp),%rsi
  402be0:	48 89 df             	mov    %rbx,%rdi
  402be3:	e8 e8 e0 ff ff       	callq  400cd0 <strcpy@plt>
  402be8:	89 ef                	mov    %ebp,%edi
  402bea:	e8 51 e1 ff ff       	callq  400d40 <close@plt>
  402bef:	0f b6 03             	movzbl (%rbx),%eax
  402bf2:	ba 4f 00 00 00       	mov    $0x4f,%edx
  402bf7:	29 c2                	sub    %eax,%edx
  402bf9:	75 22                	jne    402c1d <submitr+0x6e5>
  402bfb:	0f b6 4b 01          	movzbl 0x1(%rbx),%ecx
  402bff:	b8 4b 00 00 00       	mov    $0x4b,%eax
  402c04:	29 c8                	sub    %ecx,%eax
  402c06:	75 17                	jne    402c1f <submitr+0x6e7>
  402c08:	0f b6 4b 02          	movzbl 0x2(%rbx),%ecx
  402c0c:	b8 0a 00 00 00       	mov    $0xa,%eax
  402c11:	29 c8                	sub    %ecx,%eax
  402c13:	75 0a                	jne    402c1f <submitr+0x6e7>
  402c15:	0f b6 43 03          	movzbl 0x3(%rbx),%eax
  402c19:	f7 d8                	neg    %eax
  402c1b:	eb 02                	jmp    402c1f <submitr+0x6e7>
  402c1d:	89 d0                	mov    %edx,%eax
  402c1f:	85 c0                	test   %eax,%eax
  402c21:	74 40                	je     402c63 <submitr+0x72b>
  402c23:	bf e0 37 40 00       	mov    $0x4037e0,%edi
  402c28:	b9 05 00 00 00       	mov    $0x5,%ecx
  402c2d:	48 89 de             	mov    %rbx,%rsi
  402c30:	f3 a6                	repz cmpsb %es:(%rdi),%ds:(%rsi)
  402c32:	0f 97 c0             	seta   %al
  402c35:	0f 92 c1             	setb   %cl
  402c38:	29 c8                	sub    %ecx,%eax
  402c3a:	0f be c0             	movsbl %al,%eax
  402c3d:	85 c0                	test   %eax,%eax
  402c3f:	74 2e                	je     402c6f <submitr+0x737>
  402c41:	85 d2                	test   %edx,%edx
  402c43:	75 13                	jne    402c58 <submitr+0x720>
  402c45:	0f b6 43 01          	movzbl 0x1(%rbx),%eax
  402c49:	ba 4b 00 00 00       	mov    $0x4b,%edx
  402c4e:	29 c2                	sub    %eax,%edx
  402c50:	75 06                	jne    402c58 <submitr+0x720>
  402c52:	0f b6 53 02          	movzbl 0x2(%rbx),%edx
  402c56:	f7 da                	neg    %edx
  402c58:	85 d2                	test   %edx,%edx
  402c5a:	75 0e                	jne    402c6a <submitr+0x732>
  402c5c:	b8 00 00 00 00       	mov    $0x0,%eax
  402c61:	eb 0c                	jmp    402c6f <submitr+0x737>
  402c63:	b8 00 00 00 00       	mov    $0x0,%eax
  402c68:	eb 05                	jmp    402c6f <submitr+0x737>
  402c6a:	b8 ff ff ff ff       	mov    $0xffffffff,%eax
  402c6f:	48 8b 9c 24 48 a0 00 	mov    0xa048(%rsp),%rbx
  402c76:	00 
  402c77:	64 48 33 1c 25 28 00 	xor    %fs:0x28,%rbx
  402c7e:	00 00 
  402c80:	74 05                	je     402c87 <submitr+0x74f>
  402c82:	e8 79 e0 ff ff       	callq  400d00 <__stack_chk_fail@plt>
  402c87:	48 81 c4 58 a0 00 00 	add    $0xa058,%rsp
  402c8e:	5b                   	pop    %rbx
  402c8f:	5d                   	pop    %rbp
  402c90:	41 5c                	pop    %r12
  402c92:	41 5d                	pop    %r13
  402c94:	41 5e                	pop    %r14
  402c96:	41 5f                	pop    %r15
  402c98:	c3                   	retq   

0000000000402c99 <init_timeout>:
  402c99:	85 ff                	test   %edi,%edi
  402c9b:	74 23                	je     402cc0 <init_timeout+0x27>
  402c9d:	53                   	push   %rbx
  402c9e:	89 fb                	mov    %edi,%ebx
  402ca0:	85 ff                	test   %edi,%edi
  402ca2:	79 05                	jns    402ca9 <init_timeout+0x10>
  402ca4:	bb 00 00 00 00       	mov    $0x0,%ebx
  402ca9:	be 91 22 40 00       	mov    $0x402291,%esi
  402cae:	bf 0e 00 00 00       	mov    $0xe,%edi
  402cb3:	e8 b8 e0 ff ff       	callq  400d70 <signal@plt>
  402cb8:	89 df                	mov    %ebx,%edi
  402cba:	e8 71 e0 ff ff       	callq  400d30 <alarm@plt>
  402cbf:	5b                   	pop    %rbx
  402cc0:	f3 c3                	repz retq 

0000000000402cc2 <init_driver>:
  402cc2:	55                   	push   %rbp
  402cc3:	53                   	push   %rbx
  402cc4:	48 83 ec 28          	sub    $0x28,%rsp
  402cc8:	48 89 fd             	mov    %rdi,%rbp
  402ccb:	64 48 8b 04 25 28 00 	mov    %fs:0x28,%rax
  402cd2:	00 00 
  402cd4:	48 89 44 24 18       	mov    %rax,0x18(%rsp)
  402cd9:	31 c0                	xor    %eax,%eax
  402cdb:	be 01 00 00 00       	mov    $0x1,%esi
  402ce0:	bf 0d 00 00 00       	mov    $0xd,%edi
  402ce5:	e8 86 e0 ff ff       	callq  400d70 <signal@plt>
  402cea:	be 01 00 00 00       	mov    $0x1,%esi
  402cef:	bf 1d 00 00 00       	mov    $0x1d,%edi
  402cf4:	e8 77 e0 ff ff       	callq  400d70 <signal@plt>
  402cf9:	be 01 00 00 00       	mov    $0x1,%esi
  402cfe:	bf 1d 00 00 00       	mov    $0x1d,%edi
  402d03:	e8 68 e0 ff ff       	callq  400d70 <signal@plt>
  402d08:	ba 00 00 00 00       	mov    $0x0,%edx
  402d0d:	be 01 00 00 00       	mov    $0x1,%esi
  402d12:	bf 02 00 00 00       	mov    $0x2,%edi
  402d17:	e8 94 e1 ff ff       	callq  400eb0 <socket@plt>
  402d1c:	85 c0                	test   %eax,%eax
  402d1e:	79 4f                	jns    402d6f <init_driver+0xad>
  402d20:	48 b8 45 72 72 6f 72 	movabs $0x43203a726f727245,%rax
  402d27:	3a 20 43 
  402d2a:	48 89 45 00          	mov    %rax,0x0(%rbp)
  402d2e:	48 b8 6c 69 65 6e 74 	movabs $0x6e7520746e65696c,%rax
  402d35:	20 75 6e 
  402d38:	48 89 45 08          	mov    %rax,0x8(%rbp)
  402d3c:	48 b8 61 62 6c 65 20 	movabs $0x206f7420656c6261,%rax
  402d43:	74 6f 20 
  402d46:	48 89 45 10          	mov    %rax,0x10(%rbp)
  402d4a:	48 b8 63 72 65 61 74 	movabs $0x7320657461657263,%rax
  402d51:	65 20 73 
  402d54:	48 89 45 18          	mov    %rax,0x18(%rbp)
  402d58:	c7 45 20 6f 63 6b 65 	movl   $0x656b636f,0x20(%rbp)
  402d5f:	66 c7 45 24 74 00    	movw   $0x74,0x24(%rbp)
  402d65:	b8 ff ff ff ff       	mov    $0xffffffff,%eax
  402d6a:	e9 2a 01 00 00       	jmpq   402e99 <init_driver+0x1d7>
  402d6f:	89 c3                	mov    %eax,%ebx
  402d71:	bf 1f 33 40 00       	mov    $0x40331f,%edi
  402d76:	e8 05 e0 ff ff       	callq  400d80 <gethostbyname@plt>
  402d7b:	48 85 c0             	test   %rax,%rax
  402d7e:	75 68                	jne    402de8 <init_driver+0x126>
  402d80:	48 b8 45 72 72 6f 72 	movabs $0x44203a726f727245,%rax
  402d87:	3a 20 44 
  402d8a:	48 89 45 00          	mov    %rax,0x0(%rbp)
  402d8e:	48 b8 4e 53 20 69 73 	movabs $0x6e7520736920534e,%rax
  402d95:	20 75 6e 
  402d98:	48 89 45 08          	mov    %rax,0x8(%rbp)
  402d9c:	48 b8 61 62 6c 65 20 	movabs $0x206f7420656c6261,%rax
  402da3:	74 6f 20 
  402da6:	48 89 45 10          	mov    %rax,0x10(%rbp)
  402daa:	48 b8 72 65 73 6f 6c 	movabs $0x2065766c6f736572,%rax
  402db1:	76 65 20 
  402db4:	48 89 45 18          	mov    %rax,0x18(%rbp)
  402db8:	48 b8 73 65 72 76 65 	movabs $0x6120726576726573,%rax
  402dbf:	72 20 61 
  402dc2:	48 89 45 20          	mov    %rax,0x20(%rbp)
  402dc6:	c7 45 28 64 64 72 65 	movl   $0x65726464,0x28(%rbp)
  402dcd:	66 c7 45 2c 73 73    	movw   $0x7373,0x2c(%rbp)
  402dd3:	c6 45 2e 00          	movb   $0x0,0x2e(%rbp)
  402dd7:	89 df                	mov    %ebx,%edi
  402dd9:	e8 62 df ff ff       	callq  400d40 <close@plt>
  402dde:	b8 ff ff ff ff       	mov    $0xffffffff,%eax
  402de3:	e9 b1 00 00 00       	jmpq   402e99 <init_driver+0x1d7>
  402de8:	48 c7 04 24 00 00 00 	movq   $0x0,(%rsp)
  402def:	00 
  402df0:	48 c7 44 24 08 00 00 	movq   $0x0,0x8(%rsp)
  402df7:	00 00 
  402df9:	66 c7 04 24 02 00    	movw   $0x2,(%rsp)
  402dff:	48 63 50 14          	movslq 0x14(%rax),%rdx
  402e03:	48 8b 40 18          	mov    0x18(%rax),%rax
  402e07:	48 8b 30             	mov    (%rax),%rsi
  402e0a:	48 8d 7c 24 04       	lea    0x4(%rsp),%rdi
  402e0f:	b9 0c 00 00 00       	mov    $0xc,%ecx
  402e14:	e8 77 df ff ff       	callq  400d90 <__memmove_chk@plt>
  402e19:	66 c7 44 24 02 4e f3 	movw   $0xf34e,0x2(%rsp)
  402e20:	ba 10 00 00 00       	mov    $0x10,%edx
  402e25:	48 89 e6             	mov    %rsp,%rsi
  402e28:	89 df                	mov    %ebx,%edi
  402e2a:	e8 51 e0 ff ff       	callq  400e80 <connect@plt>
  402e2f:	85 c0                	test   %eax,%eax
  402e31:	79 50                	jns    402e83 <init_driver+0x1c1>
  402e33:	48 b8 45 72 72 6f 72 	movabs $0x55203a726f727245,%rax
  402e3a:	3a 20 55 
  402e3d:	48 89 45 00          	mov    %rax,0x0(%rbp)
  402e41:	48 b8 6e 61 62 6c 65 	movabs $0x6f7420656c62616e,%rax
  402e48:	20 74 6f 
  402e4b:	48 89 45 08          	mov    %rax,0x8(%rbp)
  402e4f:	48 b8 20 63 6f 6e 6e 	movabs $0x7463656e6e6f6320,%rax
  402e56:	65 63 74 
  402e59:	48 89 45 10          	mov    %rax,0x10(%rbp)
  402e5d:	48 b8 20 74 6f 20 73 	movabs $0x76726573206f7420,%rax
  402e64:	65 72 76 
  402e67:	48 89 45 18          	mov    %rax,0x18(%rbp)
  402e6b:	66 c7 45 20 65 72    	movw   $0x7265,0x20(%rbp)
  402e71:	c6 45 22 00          	movb   $0x0,0x22(%rbp)
  402e75:	89 df                	mov    %ebx,%edi
  402e77:	e8 c4 de ff ff       	callq  400d40 <close@plt>
  402e7c:	b8 ff ff ff ff       	mov    $0xffffffff,%eax
  402e81:	eb 16                	jmp    402e99 <init_driver+0x1d7>
  402e83:	89 df                	mov    %ebx,%edi
  402e85:	e8 b6 de ff ff       	callq  400d40 <close@plt>
  402e8a:	66 c7 45 00 4f 4b    	movw   $0x4b4f,0x0(%rbp)
  402e90:	c6 45 02 00          	movb   $0x0,0x2(%rbp)
  402e94:	b8 00 00 00 00       	mov    $0x0,%eax
  402e99:	48 8b 4c 24 18       	mov    0x18(%rsp),%rcx
  402e9e:	64 48 33 0c 25 28 00 	xor    %fs:0x28,%rcx
  402ea5:	00 00 
  402ea7:	74 05                	je     402eae <init_driver+0x1ec>
  402ea9:	e8 52 de ff ff       	callq  400d00 <__stack_chk_fail@plt>
  402eae:	48 83 c4 28          	add    $0x28,%rsp
  402eb2:	5b                   	pop    %rbx
  402eb3:	5d                   	pop    %rbp
  402eb4:	c3                   	retq   

0000000000402eb5 <driver_post>:
  402eb5:	53                   	push   %rbx
  402eb6:	4c 89 cb             	mov    %r9,%rbx
  402eb9:	45 85 c0             	test   %r8d,%r8d
  402ebc:	74 27                	je     402ee5 <driver_post+0x30>
  402ebe:	48 89 ca             	mov    %rcx,%rdx
  402ec1:	be e5 37 40 00       	mov    $0x4037e5,%esi
  402ec6:	bf 01 00 00 00       	mov    $0x1,%edi
  402ecb:	b8 00 00 00 00       	mov    $0x0,%eax
  402ed0:	e8 4b df ff ff       	callq  400e20 <__printf_chk@plt>
  402ed5:	66 c7 03 4f 4b       	movw   $0x4b4f,(%rbx)
  402eda:	c6 43 02 00          	movb   $0x0,0x2(%rbx)
  402ede:	b8 00 00 00 00       	mov    $0x0,%eax
  402ee3:	eb 3f                	jmp    402f24 <driver_post+0x6f>
  402ee5:	48 85 ff             	test   %rdi,%rdi
  402ee8:	74 2c                	je     402f16 <driver_post+0x61>
  402eea:	80 3f 00             	cmpb   $0x0,(%rdi)
  402eed:	74 27                	je     402f16 <driver_post+0x61>
  402eef:	48 83 ec 08          	sub    $0x8,%rsp
  402ef3:	41 51                	push   %r9
  402ef5:	49 89 c9             	mov    %rcx,%r9
  402ef8:	49 89 d0             	mov    %rdx,%r8
  402efb:	48 89 f9             	mov    %rdi,%rcx
  402efe:	48 89 f2             	mov    %rsi,%rdx
  402f01:	be f3 4e 00 00       	mov    $0x4ef3,%esi
  402f06:	bf 1f 33 40 00       	mov    $0x40331f,%edi
  402f0b:	e8 28 f6 ff ff       	callq  402538 <submitr>
  402f10:	48 83 c4 10          	add    $0x10,%rsp
  402f14:	eb 0e                	jmp    402f24 <driver_post+0x6f>
  402f16:	66 c7 03 4f 4b       	movw   $0x4b4f,(%rbx)
  402f1b:	c6 43 02 00          	movb   $0x0,0x2(%rbx)
  402f1f:	b8 00 00 00 00       	mov    $0x0,%eax
  402f24:	5b                   	pop    %rbx
  402f25:	c3                   	retq   

0000000000402f26 <check>:
  402f26:	89 f8                	mov    %edi,%eax
  402f28:	c1 e8 1c             	shr    $0x1c,%eax
  402f2b:	85 c0                	test   %eax,%eax
  402f2d:	74 1d                	je     402f4c <check+0x26>
  402f2f:	b9 00 00 00 00       	mov    $0x0,%ecx
  402f34:	eb 0b                	jmp    402f41 <check+0x1b>
  402f36:	89 f8                	mov    %edi,%eax
  402f38:	d3 e8                	shr    %cl,%eax
  402f3a:	3c 0a                	cmp    $0xa,%al
  402f3c:	74 14                	je     402f52 <check+0x2c>
  402f3e:	83 c1 08             	add    $0x8,%ecx
  402f41:	83 f9 1f             	cmp    $0x1f,%ecx
  402f44:	7e f0                	jle    402f36 <check+0x10>
  402f46:	b8 01 00 00 00       	mov    $0x1,%eax
  402f4b:	c3                   	retq   
  402f4c:	b8 00 00 00 00       	mov    $0x0,%eax
  402f51:	c3                   	retq   
  402f52:	b8 00 00 00 00       	mov    $0x0,%eax
  402f57:	c3                   	retq   

0000000000402f58 <gencookie>:
  402f58:	53                   	push   %rbx
  402f59:	83 c7 01             	add    $0x1,%edi
  402f5c:	e8 4f dd ff ff       	callq  400cb0 <srandom@plt>
  402f61:	e8 7a de ff ff       	callq  400de0 <random@plt>
  402f66:	89 c3                	mov    %eax,%ebx
  402f68:	89 c7                	mov    %eax,%edi
  402f6a:	e8 b7 ff ff ff       	callq  402f26 <check>
  402f6f:	85 c0                	test   %eax,%eax
  402f71:	74 ee                	je     402f61 <gencookie+0x9>
  402f73:	89 d8                	mov    %ebx,%eax
  402f75:	5b                   	pop    %rbx
  402f76:	c3                   	retq   
  402f77:	66 0f 1f 84 00 00 00 	nopw   0x0(%rax,%rax,1)
  402f7e:	00 00 

0000000000402f80 <__libc_csu_init>:
  402f80:	41 57                	push   %r15
  402f82:	41 89 ff             	mov    %edi,%r15d
  402f85:	41 56                	push   %r14
  402f87:	49 89 f6             	mov    %rsi,%r14
  402f8a:	41 55                	push   %r13
  402f8c:	49 89 d5             	mov    %rdx,%r13
  402f8f:	41 54                	push   %r12
  402f91:	4c 8d 25 78 1e 20 00 	lea    0x201e78(%rip),%r12        # 604e10 <__frame_dummy_init_array_entry>
  402f98:	55                   	push   %rbp
  402f99:	48 8d 2d 78 1e 20 00 	lea    0x201e78(%rip),%rbp        # 604e18 <__init_array_end>
  402fa0:	53                   	push   %rbx
  402fa1:	4c 29 e5             	sub    %r12,%rbp
  402fa4:	31 db                	xor    %ebx,%ebx
  402fa6:	48 c1 fd 03          	sar    $0x3,%rbp
  402faa:	48 83 ec 08          	sub    $0x8,%rsp
  402fae:	e8 ad dc ff ff       	callq  400c60 <_init>
  402fb3:	48 85 ed             	test   %rbp,%rbp
  402fb6:	74 1e                	je     402fd6 <__libc_csu_init+0x56>
  402fb8:	0f 1f 84 00 00 00 00 	nopl   0x0(%rax,%rax,1)
  402fbf:	00 
  402fc0:	4c 89 ea             	mov    %r13,%rdx
  402fc3:	4c 89 f6             	mov    %r14,%rsi
  402fc6:	44 89 ff             	mov    %r15d,%edi
  402fc9:	41 ff 14 dc          	callq  *(%r12,%rbx,8)
  402fcd:	48 83 c3 01          	add    $0x1,%rbx
  402fd1:	48 39 eb             	cmp    %rbp,%rbx
  402fd4:	75 ea                	jne    402fc0 <__libc_csu_init+0x40>
  402fd6:	48 83 c4 08          	add    $0x8,%rsp
  402fda:	5b                   	pop    %rbx
  402fdb:	5d                   	pop    %rbp
  402fdc:	41 5c                	pop    %r12
  402fde:	41 5d                	pop    %r13
  402fe0:	41 5e                	pop    %r14
  402fe2:	41 5f                	pop    %r15
  402fe4:	c3                   	retq   
  402fe5:	66 66 2e 0f 1f 84 00 	data16 nopw %cs:0x0(%rax,%rax,1)
  402fec:	00 00 00 00 

0000000000402ff0 <__libc_csu_fini>:
  402ff0:	f3 c3                	repz retq 

Disassembly of section .fini:

0000000000402ff4 <_fini>:
  402ff4:	48 83 ec 08          	sub    $0x8,%rsp
  402ff8:	48 83 c4 08          	add    $0x8,%rsp
  402ffc:	c3                   	retq   
